
kernel.elf:     file format elf32-littlenios2
kernel.elf
architecture: nios2, flags 0x00000112:
EXEC_P, HAS_SYMS, D_PAGED
start address 0x00000194

Program Header:
    LOAD off    0x00001020 vaddr 0x02000020 paddr 0x00000000 align 2**12
         filesz 0x00000194 memsz 0x00000194 flags r-x
    LOAD off    0x00002194 vaddr 0x00000194 paddr 0x00000194 align 2**12
         filesz 0x0000f180 memsz 0x0000f180 flags r-x
    LOAD off    0x00011314 vaddr 0x0000f314 paddr 0x00010db0 align 2**12
         filesz 0x00001a9c memsz 0x00001a9c flags rw-
    LOAD off    0x0001384c vaddr 0x0001284c paddr 0x0001284c align 2**12
         filesz 0x00000000 memsz 0x00000648 flags rw-
    LOAD off    0x00013000 vaddr 0x02000000 paddr 0x02000000 align 2**12
         filesz 0x00000020 memsz 0x00000020 flags r-x

Sections:
Idx Name          Size      VMA       LMA       File off  Algn
  0 .entry        00000020  02000000  02000000  00013000  2**5
                  CONTENTS, ALLOC, LOAD, READONLY, CODE
  1 .exceptions   00000194  02000020  00000000  00001020  2**2
                  CONTENTS, ALLOC, LOAD, READONLY, CODE
  2 .text         0000ea70  00000194  00000194  00002194  2**2
                  CONTENTS, ALLOC, LOAD, READONLY, CODE
  3 .rodata       00000710  0000ec04  0000ec04  00010c04  2**2
                  CONTENTS, ALLOC, LOAD, READONLY, DATA
  4 .rwdata       00001a9c  0000f314  00010db0  00011314  2**2
                  CONTENTS, ALLOC, LOAD, DATA, SMALL_DATA
  5 .bss          00000648  0001284c  0001284c  0001384c  2**2
                  ALLOC, SMALL_DATA
  6 .comment      00000023  00000000  00000000  00013020  2**0
                  CONTENTS, READONLY
  7 .debug_aranges 00000d58  00000000  00000000  00013048  2**3
                  CONTENTS, READONLY, DEBUGGING
  8 .debug_pubnames 000016e9  00000000  00000000  00013da0  2**0
                  CONTENTS, READONLY, DEBUGGING
  9 .debug_info   00025e2f  00000000  00000000  00015489  2**0
                  CONTENTS, READONLY, DEBUGGING
 10 .debug_abbrev 000082f2  00000000  00000000  0003b2b8  2**0
                  CONTENTS, READONLY, DEBUGGING
 11 .debug_line   00014e34  00000000  00000000  000435aa  2**0
                  CONTENTS, READONLY, DEBUGGING
 12 .debug_frame  00001df0  00000000  00000000  000583e0  2**2
                  CONTENTS, READONLY, DEBUGGING
 13 .debug_str    00002282  00000000  00000000  0005a1d0  2**0
                  CONTENTS, READONLY, DEBUGGING
 14 .debug_loc    0000c632  00000000  00000000  0005c452  2**0
                  CONTENTS, READONLY, DEBUGGING
 15 .debug_alt_sim_info 00000020  00000000  00000000  00068a84  2**2
                  CONTENTS, READONLY, DEBUGGING
 16 .debug_ranges 00000990  00000000  00000000  00068aa8  2**3
                  CONTENTS, READONLY, DEBUGGING
 17 .thread_model 00000003  00000000  00000000  0006cb0e  2**0
                  CONTENTS, READONLY
 18 .cpu          0000000c  00000000  00000000  0006cb11  2**0
                  CONTENTS, READONLY
 19 .qsys         00000001  00000000  00000000  0006cb1d  2**0
                  CONTENTS, READONLY
 20 .simulation_enabled 00000001  00000000  00000000  0006cb1e  2**0
                  CONTENTS, READONLY
 21 .sysid_hash   00000004  00000000  00000000  0006cb1f  2**0
                  CONTENTS, READONLY
 22 .sysid_base   00000004  00000000  00000000  0006cb23  2**0
                  CONTENTS, READONLY
 23 .sysid_time   00000004  00000000  00000000  0006cb27  2**0
                  CONTENTS, READONLY
 24 .stderr_dev   0000000b  00000000  00000000  0006cb2b  2**0
                  CONTENTS, READONLY
 25 .stdin_dev    0000000b  00000000  00000000  0006cb36  2**0
                  CONTENTS, READONLY
 26 .stdout_dev   0000000b  00000000  00000000  0006cb41  2**0
                  CONTENTS, READONLY
 27 .sopc_system_name 00000008  00000000  00000000  0006cb4c  2**0
                  CONTENTS, READONLY
 28 .quartus_project_dir 00000018  00000000  00000000  0006cb54  2**0
                  CONTENTS, READONLY
 29 .sopcinfo     0005f6a9  00000000  00000000  0006cb6c  2**0
                  CONTENTS, READONLY
SYMBOL TABLE:
02000000 l    d  .entry	00000000 .entry
02000020 l    d  .exceptions	00000000 .exceptions
00000194 l    d  .text	00000000 .text
0000ec04 l    d  .rodata	00000000 .rodata
0000f314 l    d  .rwdata	00000000 .rwdata
0001284c l    d  .bss	00000000 .bss
00000000 l    d  .comment	00000000 .comment
00000000 l    d  .debug_aranges	00000000 .debug_aranges
00000000 l    d  .debug_pubnames	00000000 .debug_pubnames
00000000 l    d  .debug_info	00000000 .debug_info
00000000 l    d  .debug_abbrev	00000000 .debug_abbrev
00000000 l    d  .debug_line	00000000 .debug_line
00000000 l    d  .debug_frame	00000000 .debug_frame
00000000 l    d  .debug_str	00000000 .debug_str
00000000 l    d  .debug_loc	00000000 .debug_loc
00000000 l    d  .debug_alt_sim_info	00000000 .debug_alt_sim_info
00000000 l    d  .debug_ranges	00000000 .debug_ranges
000001cc l       .text	00000000 alt_after_alt_main
00000000 l    df *ABS*	00000000 alt_irq_handler.c
00000000 l    df *ABS*	00000000 interrupt.c
00000000 l    df *ABS*	00000000 kernel2.c
00010d68 l     O .rwdata	00000004 readyList
0001285c l     O .bss	00000004 nextProcessId
00012860 l     O .bss	00000004 nextMonitorId
00000508 l     F .text	000000c8 addLast
000005d0 l     F .text	00000050 addFirst
00000684 l     F .text	000000a0 removeHead
00000724 l     F .text	000000b4 removeFromList
000007d8 l     F .text	00000028 head
00000800 l     F .text	0000002c isEmpty
00000bc8 l     F .text	00000074 checkAndTransfer
00000dd4 l     F .text	0000006c getCurrentMonitor
00000000 l    df *ABS*	00000000 kernelTest2.c
00000000 l    df *ABS*	00000000 system_m.c
00000000 l    df *ABS*	00000000 lib2-divmod.c
000027a4 l     F .text	0000007c udivmodsi4
00000000 l    df *ABS*	00000000 exit.c
00000000 l    df *ABS*	00000000 fprintf.c
00000000 l    df *ABS*	00000000 impure.c
0000f34c l     O .rwdata	00000400 impure_data
00000000 l    df *ABS*	00000000 malloc.c
00000000 l    df *ABS*	00000000 mallocr.c
00000000 l    df *ABS*	00000000 printf.c
00000000 l    df *ABS*	00000000 puts.c
00000000 l    df *ABS*	00000000 sbrkr.c
00000000 l    df *ABS*	00000000 strlen.c
00000000 l    df *ABS*	00000000 vfprintf.c
00003300 l     F .text	00000058 __sprint_r
0000f046 l     O .rodata	00000010 blanks.3452
0000f036 l     O .rodata	00000010 zeroes.3453
00000000 l    df *ABS*	00000000 wsetup.c
00000000 l    df *ABS*	00000000 __call_atexit.c
00005364 l     F .text	00000004 register_fini
00000000 l    df *ABS*	00000000 dtoa.c
00005518 l     F .text	00000218 quorem
00000000 l    df *ABS*	00000000 fflush.c
00000000 l    df *ABS*	00000000 findfp.c
00006f14 l     F .text	00000058 std
00007020 l     F .text	00000008 __fp_lock
00007028 l     F .text	00000008 __fp_unlock
00000000 l    df *ABS*	00000000 mallocr.c
00000000 l    df *ABS*	00000000 fvwrite.c
00000000 l    df *ABS*	00000000 fwalk.c
00000000 l    df *ABS*	00000000 int_errno.c
00000000 l    df *ABS*	00000000 locale.c
00010d84 l     O .rwdata	00000004 charset
0000f078 l     O .rodata	00000030 lconv
00000000 l    df *ABS*	00000000 makebuf.c
00000000 l    df *ABS*	00000000 memchr.c
00000000 l    df *ABS*	00000000 memcpy.c
00000000 l    df *ABS*	00000000 memmove.c
00000000 l    df *ABS*	00000000 memset.c
00000000 l    df *ABS*	00000000 mprec.c
0000f1c0 l     O .rodata	0000000c p05.2458
00000000 l    df *ABS*	00000000 mallocr.c
00000000 l    df *ABS*	00000000 s_isinfd.c
00000000 l    df *ABS*	00000000 s_isnand.c
00000000 l    df *ABS*	00000000 stdio.c
00000000 l    df *ABS*	00000000 strcmp.c
00000000 l    df *ABS*	00000000 writer.c
00000000 l    df *ABS*	00000000 mallocr.c
00000000 l    df *ABS*	00000000 closer.c
00000000 l    df *ABS*	00000000 fclose.c
00000000 l    df *ABS*	00000000 fstatr.c
00000000 l    df *ABS*	00000000 isattyr.c
00000000 l    df *ABS*	00000000 lseekr.c
00000000 l    df *ABS*	00000000 readr.c
00000000 l    df *ABS*	00000000 libgcc2.c
00000000 l    df *ABS*	00000000 libgcc2.c
00000000 l    df *ABS*	00000000 dp-bit.c
0000aa04 l     F .text	00000410 _fpadd_parts
00000000 l    df *ABS*	00000000 dp-bit.c
00000000 l    df *ABS*	00000000 dp-bit.c
00000000 l    df *ABS*	00000000 dp-bit.c
00000000 l    df *ABS*	00000000 dp-bit.c
00000000 l    df *ABS*	00000000 dp-bit.c
00000000 l    df *ABS*	00000000 dp-bit.c
00000000 l    df *ABS*	00000000 dp-bit.c
00000000 l    df *ABS*	00000000 dp-bit.c
00000000 l    df *ABS*	00000000 dp-bit.c
00000000 l    df *ABS*	00000000 dp-bit.c
00000000 l    df *ABS*	00000000 dp-bit.c
00000000 l    df *ABS*	00000000 libgcc2.c
00000000 l    df *ABS*	00000000 libgcc2.c
00000000 l    df *ABS*	00000000 libgcc2.c
00000000 l    df *ABS*	00000000 dp-bit.c
00000000 l    df *ABS*	00000000 dp-bit.c
00000000 l    df *ABS*	00000000 dp-bit.c
00000000 l    df *ABS*	00000000 alt_close.c
0000c258 l     F .text	00000060 alt_get_errno
00000000 l    df *ABS*	00000000 alt_dev.c
0000c2b8 l     F .text	0000002c alt_dev_null_write
00000000 l    df *ABS*	00000000 alt_errno.c
00000000 l    df *ABS*	00000000 alt_exit.c
0000c2e4 l     F .text	00000040 alt_sim_halt
00000000 l    df *ABS*	00000000 alt_fstat.c
0000c418 l     F .text	00000060 alt_get_errno
00000000 l    df *ABS*	00000000 alt_irq_register.c
00000000 l    df *ABS*	00000000 alt_irq_vars.c
00000000 l    df *ABS*	00000000 alt_isatty.c
0000c6f8 l     F .text	00000060 alt_get_errno
00000000 l    df *ABS*	00000000 alt_load.c
0000c7d8 l     F .text	0000006c alt_load_section
00000000 l    df *ABS*	00000000 alt_lseek.c
0000c934 l     F .text	00000060 alt_get_errno
00000000 l    df *ABS*	00000000 alt_main.c
00000000 l    df *ABS*	00000000 alt_malloc_lock.c
00000000 l    df *ABS*	00000000 alt_read.c
0000cb60 l     F .text	00000060 alt_get_errno
00000000 l    df *ABS*	00000000 alt_release_fd.c
00000000 l    df *ABS*	00000000 alt_sbrk.c
00010da4 l     O .rwdata	00000004 heap_end
00000000 l    df *ABS*	00000000 alt_write.c
0000cdfc l     F .text	00000060 alt_get_errno
00000000 l    df *ABS*	00000000 alt_sys_init.c
0000fd08 l     O .rwdata	00001060 jtag_uart_0
0000ceec l     F .text	00000038 alt_dev_reg
00000000 l    df *ABS*	00000000 altera_avalon_jtag_uart_fd.c
00000000 l    df *ABS*	00000000 altera_avalon_jtag_uart_init.c
0000d12c l     F .text	00000228 altera_avalon_jtag_uart_irq
0000d354 l     F .text	000000b0 altera_avalon_jtag_uart_timeout
00000000 l    df *ABS*	00000000 altera_avalon_jtag_uart_ioctl.c
00000000 l    df *ABS*	00000000 altera_avalon_jtag_uart_read.c
00000000 l    df *ABS*	00000000 altera_avalon_jtag_uart_write.c
00000000 l    df *ABS*	00000000 altera_avalon_timer_sc.c
0000d9d0 l     F .text	00000070 alt_avalon_timer_sc_irq
00000000 l    df *ABS*	00000000 alt_alarm_start.c
00000000 l    df *ABS*	00000000 alt_dcache_flush_all.c
00000000 l    df *ABS*	00000000 alt_dev_llist_insert.c
0000dcf4 l     F .text	00000060 alt_get_errno
00000000 l    df *ABS*	00000000 alt_do_ctors.c
00000000 l    df *ABS*	00000000 alt_do_dtors.c
00000000 l    df *ABS*	00000000 alt_icache_flush_all.c
00000000 l    df *ABS*	00000000 alt_iic.c
00000000 l    df *ABS*	00000000 alt_iic_isr_register.c
00000000 l    df *ABS*	00000000 alt_io_redirect.c
0000e118 l     F .text	000000c4 alt_open_fd
00000000 l    df *ABS*	00000000 alt_open.c
0000e254 l     F .text	000000dc alt_file_locked
0000e4b8 l     F .text	00000060 alt_get_errno
00000000 l    df *ABS*	00000000 alt_tick.c
00000000 l    df *ABS*	00000000 altera_nios2_qsys_irq.c
00000000 l    df *ABS*	00000000 alt_find_dev.c
00000000 l    df *ABS*	00000000 alt_find_file.c
00000000 l    df *ABS*	00000000 alt_get_fd.c
00000000 l    df *ABS*	00000000 alt_icache_flush.c
00000000 l    df *ABS*	00000000 atexit.c
00000000 l    df *ABS*	00000000 memcmp.c
00000000 l    df *ABS*	00000000 __atexit.c
00008590 g     F .text	00000094 _mprec_log10
0000205c g     F .text	000000b0 timedGet
0000867c g     F .text	00000088 __any_on
00009d18 g     F .text	00000070 _isatty_r
0000f198 g     O .rodata	00000028 __mprec_tinytens
0000c994 g     F .text	0000006c alt_main
00003168 g     F .text	000000a0 _puts_r
00012c04 g     O .bss	00000100 alt_irq
00009d88 g     F .text	00000078 _lseek_r
0000269c g       .text	00000000 _transfer
00000c3c g     F .text	0000006c yield
000025f0 g     F .text	0000004c transfer
00010db0 g       *ABS*	00000000 __flash_rwdata_start
00001f5c g     F .text	0000007c put
0000b524 g     F .text	00000088 __eqdf2
00012e94 g       *ABS*	00000000 __alt_heap_start
000030f0 g     F .text	00000044 printf
000097e4 g     F .text	00000068 __sseek
00006f7c g     F .text	000000a4 __sinit
00007c54 g     F .text	00000084 _setlocale_r
0000707c g     F .text	00000068 __sfmoreglue
0000ca20 g     F .text	00000020 __malloc_unlock
00012900 g     O .bss	000000a0 monitors
0000800c g     F .text	000000e0 memmove
0000706c g     F .text	00000010 _cleanup
00008704 g     F .text	000000bc _Balloc
0000b634 g     F .text	00000088 __gtdf2
00000000  w      *UND*	00000000 __errno
02000000 g     F .entry	0000001c __reset
00012854 g     O .bss	00000004 edge_capture
00000ca8 g     F .text	0000012c createMonitor
00000000 g       *ABS*	00000000 __flash_exceptions_start
00002174 g     F .text	0000007c displayNumber
00009ca4 g     F .text	00000074 _fstat_r
00000400 g     F .text	00000060 init_button
00012888 g     O .bss	00000004 errno
00001bb8 g     F .text	00000140 timedWait
000128a0 g     O .bss	00000004 alt_argv
00012874 g     O .bss	00000004 running
00018d68 g       *ABS*	00000000 _gp
0001286c g     O .bss	00000004 reset
0000fb88 g     O .rwdata	00000180 alt_fd_list
000129a0 g     O .bss	00000258 processes
0000e6dc g     F .text	00000094 alt_find_dev
00007f6c g     F .text	000000a0 memcpy
00007060 g     F .text	0000000c _cleanup_r
0000b7cc g     F .text	000000f8 __floatsidf
0000e1dc g     F .text	00000078 alt_io_redirect
0000b744 g     F .text	00000088 __ltdf2
0000ec04 g       *ABS*	00000000 __DTOR_END__
00003208 g     F .text	00000014 puts
000084e0 g     F .text	000000b0 __ratio
00012858 g     O .bss	00000004 timer_capture
0000d56c g     F .text	00000224 altera_avalon_jtag_uart_read
0000299c g     F .text	00000014 malloc
00003134 g     F .text	00000034 _printf_r
000028e0 g     F .text	00000008 __udivsi3
0000c638 g     F .text	000000c0 isatty
0000f0a8 g     O .rodata	000000c8 __mprec_tens
00001cf8 g     F .text	00000144 sleep
00007c30 g     F .text	00000008 __locale_charset
000004b8 g     F .text	00000050 init_clock
0000e948 g     F .text	00000090 alt_icache_flush
0001287c g     O .bss	00000004 __malloc_top_pad
00010d80 g     O .rwdata	00000004 __mb_cur_max
00007c38 g     F .text	0000000c _localeconv_r
00008dfc g     F .text	0000003c __i2b
00007614 g     F .text	0000049c __sfvwrite_r
0000321c g     F .text	00000070 _sbrk_r
0000237c g     F .text	00000130 consumer
00009e00 g     F .text	00000078 _read_r
0000fb54 g     O .rwdata	0000000c __lc_ctype
00010d98 g     O .rwdata	00000004 alt_max_fd
0000bf5c g     F .text	00000138 __unpack_d
00009b80 g     F .text	00000110 _fclose_r
00006ee0 g     F .text	00000034 fflush
00012880 g     O .bss	00000004 __malloc_max_sbrked_mem
0000c478 g     F .text	000001c0 alt_irq_register
0000ae94 g     F .text	00000074 __adddf3
000083c0 g     F .text	00000120 __b2d
0000a454 g     F .text	000005b0 __umoddi3
0000c844 g     F .text	000000f0 lseek
00010d74 g     O .rwdata	00000004 _global_impure_ptr
00009178 g     F .text	000005f4 _realloc_r
00012e94 g       *ABS*	00000000 __bss_end
0000e020 g     F .text	000000f8 alt_iic_isr_register
0000e5b0 g     F .text	0000010c alt_tick
00009e78 g     F .text	000005dc __udivdi3
0000f170 g     O .rodata	00000028 __mprec_bigtens
00009058 g     F .text	00000120 __s2b
0000b99c g     F .text	00000194 __floatunsidf
00012878 g     O .bss	00000004 nextP
000082e0 g     F .text	00000060 __mcmp
00007048 g     F .text	00000018 __fp_lock_all
0000dfd8 g     F .text	00000048 alt_ic_irq_enabled
000021f0 g     F .text	0000018c producer
00001130 g     F .text	000001c4 exitMonitor
00012864 g     O .bss	00000004 idle_pid
000012f4 g     F .text	00000128 notify
0000e518 g     F .text	00000098 alt_alarm_stop
00010d6c g     O .rwdata	00000004 displayOn
00012898 g     O .bss	00000004 alt_irq_active
02000000 g       *ABS*	00000000 __alt_mem_onchip_mem
020000ec g     F .exceptions	000000c8 alt_irq_handler
0000fb60 g     O .rwdata	00000028 alt_dev_null
00012870 g     O .bss	00000004 started
0000dc24 g     F .text	0000001c alt_dcache_flush_all
000081ac g     F .text	00000070 __hi0bits
0000b8c4 g     F .text	000000d8 __fixdfsi
0000263c g     F .text	00000044 iotransfer
00010db0 g       *ABS*	00000000 __ram_rwdata_end
00010d90 g     O .rwdata	00000008 alt_dev_list
0000ccdc g     F .text	00000120 write
0000f314 g       *ABS*	00000000 __ram_rodata_end
0000c344 g     F .text	000000d4 fstat
00002928 g     F .text	0000002c fprintf
00001f20 g     F .text	0000003c initBuffer
00008f38 g     F .text	00000120 __pow5mult
0001288c g     O .bss	00000004 __nlocale_changed
000028e8 g     F .text	00000008 __umodsi3
00012e94 g       *ABS*	00000000 end
0000d06c g     F .text	000000c0 altera_avalon_jtag_uart_init
00002798 g       .text	00000000 allowInterrupts
0000ec00 g       *ABS*	00000000 __CTOR_LIST__
02000000 g       *ABS*	00000000 __alt_stack_pointer
0000da40 g     F .text	00000090 alt_avalon_timer_sc_init
0000bbc8 g     F .text	00000080 __clzsi2
0000d790 g     F .text	00000240 altera_avalon_jtag_uart_write
00006f6c g     F .text	00000004 __sfp_lock_acquire
00007e88 g     F .text	000000e4 memchr
00003358 g     F .text	00001eac ___vfprintf_internal_r
00007300 g     F .text	00000314 _free_r
00001934 g     F .text	00000030 wait
00005368 g     F .text	000001b0 __call_exitprocs
0001284c g     O .bss	00000008 interruptVector
00012890 g     O .bss	00000004 __mlocale_changed
00010d7c g     O .rwdata	00000004 __malloc_sbrk_base
00000194 g     F .text	0000003c _start
0000082c g     F .text	000001d0 createProcess
000128a8 g     O .bss	00000004 _alt_tick_rate
00001964 g     F .text	00000254 _wait
00001594 g     F .text	0000025c scheduler
00008ac8 g     F .text	0000014c __lshift
000128ac g     O .bss	00000004 _alt_nticks
0000ca40 g     F .text	00000120 read
0000ce90 g     F .text	0000005c alt_sys_init
0000ea60 g     F .text	00000134 __register_exitproc
00008c14 g     F .text	000001e8 __multiply
0000d404 g     F .text	00000074 altera_avalon_jtag_uart_close
0000f314 g       *ABS*	00000000 __ram_rwdata_start
0000ec04 g       *ABS*	00000000 __ram_rodata_start
000128d8 g     O .bss	00000028 __malloc_current_mallinfo
000087c0 g     F .text	0000017c __d2b
0000278c g       .text	00000000 maskInterrupts
0000cf24 g     F .text	00000058 altera_avalon_jtag_uart_read_fd
0000e890 g     F .text	000000b8 alt_get_fd
0000c094 g     F .text	000000c8 __fpcmp_parts_d
00009b10 g     F .text	00000070 _close_r
0000e9ec g     F .text	00000074 memcmp
0000cfd4 g     F .text	00000048 altera_avalon_jtag_uart_close_fd
00012e94 g       *ABS*	00000000 __alt_stack_base
0000d01c g     F .text	00000050 altera_avalon_jtag_uart_ioctl_fd
00005228 g     F .text	0000013c __swsetup_r
0000b2cc g     F .text	00000258 __divdf3
000070e4 g     F .text	000000f0 __sfp
00008624 g     F .text	00000058 __copybits
0000f74c g     O .rwdata	00000408 __malloc_av_
00006f78 g     F .text	00000004 __sinit_lock_release
0000af08 g     F .text	000003c4 __muldf3
000098c8 g     F .text	00000060 __sread
0000e770 g     F .text	00000120 alt_find_file
0000dc40 g     F .text	000000b4 alt_dev_llist_insert
0000ca00 g     F .text	00000020 __malloc_lock
00002954 g     F .text	00000034 _fprintf_r
0000cc20 g     F .text	000000bc sbrk
00006ce4 g     F .text	000001fc _fflush_r
00009a5c g     F .text	000000b4 _calloc_r
0001284c g       *ABS*	00000000 __bss_start
000080ec g     F .text	00000098 memset
0000251c g     F .text	00000078 main
000002a4 g     F .text	000000d8 insertTail
000128a4 g     O .bss	00000004 alt_envp
00012884 g     O .bss	00000004 __malloc_max_total_mem
0000cf7c g     F .text	00000058 altera_avalon_jtag_uart_write_fd
0000f340 g     O .rwdata	0000000c lcdZones
00000460 g     F .text	00000058 handle_timer_interrupts
00000e40 g     F .text	000002f0 enterMonitor
000097dc g     F .text	00000008 __sclose
02000000 g       *ABS*	00000000 __alt_heap_limit
00009c90 g     F .text	00000014 fclose
00000620 g     F .text	00000064 size
00012d04 g     O .bss	00000190 _atexit0
00005730 g     F .text	000015b4 _dtoa_r
000029b0 g     F .text	00000740 _malloc_r
00010d9c g     O .rwdata	00000004 alt_errno
00007b78 g     F .text	000000b8 _fwalk
000009fc g     F .text	000001cc createSpecialProcess
00002820 g     F .text	00000060 __divsi3
0000f1cc g     O .rodata	00000014 __thenan_df
000071d4 g     F .text	0000012c _malloc_trim_r
0000ec04 g       *ABS*	00000000 __CTOR_END__
00009928 g     F .text	000000bc strcmp
0000ec04 g       *ABS*	00000000 __flash_rodata_start
000128b0 g     O .bss	00000028 timedWaiting
0000ec04 g       *ABS*	00000000 __DTOR_LIST__
00001828 g     F .text	0000010c waitInterrupt
0000b5ac g     F .text	00000088 __nedf2
0000ce5c g     F .text	00000034 alt_irq_init
0000cbc0 g     F .text	00000060 alt_release_fd
0000f1e0 g     O .rodata	00000100 __clz_tab
00012894 g     O .bss	00000004 _PathLocale
0000e9d8 g     F .text	00000014 atexit
000099e4 g     F .text	00000078 _write_r
0000210c g     F .text	00000068 displayDigit
00007cd8 g     F .text	0000001c setlocale
00001fd8 g     F .text	00000084 get
00010d70 g     O .rwdata	00000004 _impure_ptr
0001289c g     O .bss	00000004 alt_argc
0000152c g     F .text	00000030 idle_code
0000ddb8 g     F .text	00000064 _do_dtors
02000020 g       .exceptions	00000000 alt_irq_entry
00008340 g     F .text	00000080 __ulp
0000976c g     F .text	00000040 __isinfd
00007030 g     F .text	00000018 __fp_unlock_all
00010d88 g     O .rwdata	00000008 alt_fs_list
0000f314 g     O .rwdata	0000002c digitCodes
02000020 g       *ABS*	00000000 __ram_exceptions_start
00007c44 g     F .text	00000010 localeconv
000001d0 g     F .text	000000d4 removeHeadI
0000de4c g     F .text	00000050 alt_ic_isr_register
00010db0 g       *ABS*	00000000 _edata
00012e94 g       *ABS*	00000000 _end
00002594 g     F .text	0000005c newProcess
020001b4 g       *ABS*	00000000 __ram_exceptions_end
0000d478 g     F .text	000000f4 altera_avalon_jtag_uart_ioctl
0000df38 g     F .text	000000a0 alt_ic_irq_disable
0000984c g     F .text	0000007c __swrite
00010d78 g     O .rwdata	00000004 __malloc_trim_threshold
0000e6bc g     F .text	00000020 altera_nios2_qsys_irq_init
00012bf8 g     O .bss	0000000c b0
000028f0 g     F .text	00000038 exit
00007ab0 g     F .text	000000c8 _fwalk_reent
00012868 g     O .bss	00000004 scheduler_pid
0000893c g     F .text	0000018c __mdiff
00002880 g     F .text	00000060 __modsi3
02000000 g       *ABS*	00000000 __alt_data_end
02000020 g     F .exceptions	00000000 alt_exception
00006f70 g     F .text	00000004 __sfp_lock_release
00000000 g       *ABS*	00000000 __alt_mem_sdram
000024ac g     F .text	00000070 countAndDisplay
00001e3c g     F .text	000000e4 start
000097ac g     F .text	00000030 __isnand
0000c324 g     F .text	00000020 _exit
0000dad0 g     F .text	00000154 alt_alarm_start
0000bb30 g     F .text	00000098 __muldi3
00007cf4 g     F .text	00000194 __smakebuf_r
0000328c g     F .text	00000074 strlen
000017f0 g     F .text	00000038 createScheduler
0000e330 g     F .text	00000188 open
0000b6bc g     F .text	00000088 __gedf2
0000155c g     F .text	00000038 createIdle
00002680 g       .text	00000000 _createStack
0000de1c g     F .text	00000030 alt_icache_flush_all
00010da0 g     O .rwdata	00000004 alt_priority_mask
0000de9c g     F .text	0000009c alt_ic_irq_enable
00005204 g     F .text	00000024 __vfprintf_internal
0000141c g     F .text	00000110 notifyAll
0000ae14 g     F .text	00000080 __subdf3
0000821c g     F .text	000000c4 __lo0bits
00010da8 g     O .rwdata	00000008 alt_alarm_list
0000dd54 g     F .text	00000064 _do_ctors
0000037c g     F .text	00000084 handle_button_interrupts
0000c15c g     F .text	000000fc close
0000c758 g     F .text	00000080 alt_load
0000bc48 g     F .text	00000314 __pack_d
00002988 g     F .text	00000014 free
00006f74 g     F .text	00000004 __sinit_lock_acquire
00008e38 g     F .text	00000100 __multadd
00008184 g     F .text	00000028 _Bfree



Disassembly of section .entry:

02000000 <__reset>:
#if NIOS2_ICACHE_SIZE > 0 && defined(ALT_ALLOW_CODE_AT_RESET) && !defined(ALT_SIM_OPTIMIZE)
    /* Assume the instruction cache size is always a power of two. */
#if NIOS2_ICACHE_SIZE > 0x8000
    movhi r2, %hi(NIOS2_ICACHE_SIZE)
#else
    movui r2, NIOS2_ICACHE_SIZE
 2000000:	00840014 	movui	r2,4096
#endif

0:
    initi r2
 2000004:	1001483a 	initi	r2
    addi r2, r2, -NIOS2_ICACHE_LINE_SIZE
 2000008:	10bff804 	addi	r2,r2,-32
    bgt r2, zero, 0b
 200000c:	00bffd16 	blt	zero,r2,2000004 <__reset+0x4>
 * Jump to the _start entry point in the .text section if reset code
 * is allowed or if optimizing for RTL simulation.
 */
#if defined(ALT_ALLOW_CODE_AT_RESET) || defined(ALT_SIM_OPTIMIZE)
    /* Jump to the _start entry point in the .text section. */
    movhi r1, %hi(_start)
 2000010:	00400034 	movhi	at,0
    ori r1, r1, %lo(_start)
 2000014:	08406514 	ori	at,at,404
    jmp r1
 2000018:	0800683a 	jmp	at
 200001c:	00000000 	call	0 <__alt_mem_sdram>

Disassembly of section .exceptions:

02000020 <alt_exception>:
         * Process an exception.  For all exceptions we must preserve all
         * caller saved registers on the stack (See the Nios2 ABI
         * documentation for details).
         */

        addi  sp, sp, -76
 2000020:	deffed04 	addi	sp,sp,-76

#endif

#endif

        stw   ra,  0(sp)
 2000024:	dfc00015 	stw	ra,0(sp)
        /*
         * Leave a gap in the stack frame at 4(sp) for the muldiv handler to
         * store zero into.
         */

        stw   r1,   8(sp)
 2000028:	d8400215 	stw	at,8(sp)
        stw   r2,  12(sp)
 200002c:	d8800315 	stw	r2,12(sp)
        stw   r3,  16(sp)
 2000030:	d8c00415 	stw	r3,16(sp)
        stw   r4,  20(sp)
 2000034:	d9000515 	stw	r4,20(sp)
        stw   r5,  24(sp)
 2000038:	d9400615 	stw	r5,24(sp)
        stw   r6,  28(sp)
 200003c:	d9800715 	stw	r6,28(sp)
        stw   r7,  32(sp)
 2000040:	d9c00815 	stw	r7,32(sp)

        rdctl r5, estatus
 2000044:	000b307a 	rdctl	r5,estatus

        stw   r8,  36(sp)
 2000048:	da000915 	stw	r8,36(sp)
        stw   r9,  40(sp)
 200004c:	da400a15 	stw	r9,40(sp)
        stw   r10, 44(sp)
 2000050:	da800b15 	stw	r10,44(sp)
        stw   r11, 48(sp)
 2000054:	dac00c15 	stw	r11,48(sp)
        stw   r12, 52(sp)
 2000058:	db000d15 	stw	r12,52(sp)
        stw   r13, 56(sp)
 200005c:	db400e15 	stw	r13,56(sp)
        stw   r14, 60(sp)
 2000060:	db800f15 	stw	r14,60(sp)
        stw   r15, 64(sp)
 2000064:	dbc01015 	stw	r15,64(sp)
        /*
         * ea-4 contains the address of the instruction being executed
         * when the exception occured. For interrupt exceptions, we will
         * will be re-issue the isntruction. Store it in 72(sp)
         */
        stw   r5,  68(sp)  /* estatus */
 2000068:	d9401115 	stw	r5,68(sp)
        addi  r15, ea, -4  /* instruction that caused exception */
 200006c:	ebffff04 	addi	r15,ea,-4
        stw   r15,  72(sp)
 2000070:	dbc01215 	stw	r15,72(sp)
#else
        /*
         * Test to see if the exception was a software exception or caused 
         * by an external interrupt, and vector accordingly.
         */
        rdctl r4, ipending
 2000074:	0009313a 	rdctl	r4,ipending
        andi  r2, r5, 1
 2000078:	2880004c 	andi	r2,r5,1
        beq   r2, zero, .Lnot_irq
 200007c:	10000326 	beq	r2,zero,200008c <alt_exception+0x6c>
        beq   r4, zero, .Lnot_irq
 2000080:	20000226 	beq	r4,zero,200008c <alt_exception+0x6c>
        /*
         * Now that all necessary registers have been preserved, call 
         * alt_irq_handler() to process the interrupts.
         */

        call alt_irq_handler
 2000084:	20000ec0 	call	20000ec <alt_irq_handler>

        .section .exceptions.irqreturn, "xa"

        br    .Lexception_exit
 2000088:	00000306 	br	2000098 <alt_exception+0x78>
         * upon completion, so we write ea (address of instruction *after*
         * the one where the exception occured) into 72(sp). The actual
         * instruction that caused the exception is written in r2, which these
         * handlers will utilize.
         */
        stw   ea,  72(sp)  /* Don't re-issue */
 200008c:	df401215 	stw	ea,72(sp)
        ldw   r2, -4(ea)   /* Instruction that caused exception */
 2000090:	e8bfff17 	ldw	r2,-4(ea)
#ifdef NIOS2_HAS_DEBUG_STUB
       /*
        *  Either tell the user now (if there is a debugger attached) or go into
        *  the debug monitor which will loop until a debugger is attached.
        */
        break
 2000094:	003da03a 	break	0
        /* 
         * Restore the saved registers, so that all general purpose registers 
         * have been restored to their state at the time the interrupt occured.
         */

        ldw   r5,  68(sp)
 2000098:	d9401117 	ldw	r5,68(sp)
        ldw   ea,  72(sp)  /* This becomes the PC once eret is executed */
 200009c:	df401217 	ldw	ea,72(sp)
        ldw   ra,   0(sp)
 20000a0:	dfc00017 	ldw	ra,0(sp)

        wrctl estatus, r5
 20000a4:	2801707a 	wrctl	estatus,r5

        ldw   r1,   8(sp)
 20000a8:	d8400217 	ldw	at,8(sp)
        ldw   r2,  12(sp)
 20000ac:	d8800317 	ldw	r2,12(sp)
        ldw   r3,  16(sp)
 20000b0:	d8c00417 	ldw	r3,16(sp)
        ldw   r4,  20(sp)
 20000b4:	d9000517 	ldw	r4,20(sp)
        ldw   r5,  24(sp)
 20000b8:	d9400617 	ldw	r5,24(sp)
        ldw   r6,  28(sp)
 20000bc:	d9800717 	ldw	r6,28(sp)
        ldw   r7,  32(sp)
 20000c0:	d9c00817 	ldw	r7,32(sp)
#ifdef ALT_STACK_CHECK
        ldw   et, %gprel(alt_exception_old_stack_limit)(gp)
#endif
#endif

        ldw   r8,  36(sp)
 20000c4:	da000917 	ldw	r8,36(sp)
        ldw   r9,  40(sp)
 20000c8:	da400a17 	ldw	r9,40(sp)
        ldw   r10, 44(sp)
 20000cc:	da800b17 	ldw	r10,44(sp)
        ldw   r11, 48(sp)
 20000d0:	dac00c17 	ldw	r11,48(sp)
        ldw   r12, 52(sp)
 20000d4:	db000d17 	ldw	r12,52(sp)
        ldw   r13, 56(sp)
 20000d8:	db400e17 	ldw	r13,56(sp)
        ldw   r14, 60(sp)
 20000dc:	db800f17 	ldw	r14,60(sp)
        ldw   r15, 64(sp)
 20000e0:	dbc01017 	ldw	r15,64(sp)
#endif

        ldw   sp,  76(sp)

#else
        addi  sp, sp, 76
 20000e4:	dec01304 	addi	sp,sp,76

        /*
         * Return to the interrupted instruction.
         */

        eret
 20000e8:	ef80083a 	eret

020000ec <alt_irq_handler>:
 * instruction is present if the macro ALT_CI_INTERRUPT_VECTOR defined.
 */

void alt_irq_handler (void) __attribute__ ((section (".exceptions")));
void alt_irq_handler (void)
{
 20000ec:	defff904 	addi	sp,sp,-28
 20000f0:	dfc00615 	stw	ra,24(sp)
 20000f4:	df000515 	stw	fp,20(sp)
 20000f8:	df000504 	addi	fp,sp,20
#ifndef NIOS2_EIC_PRESENT
static ALT_INLINE alt_u32 ALT_ALWAYS_INLINE alt_irq_pending (void)
{
  alt_u32 active;

  NIOS2_READ_IPENDING (active);
 20000fc:	0005313a 	rdctl	r2,ipending
 2000100:	e0bffc15 	stw	r2,-16(fp)

  return active;
 2000104:	e0bffc17 	ldw	r2,-16(fp)
   * Consider the case where the high priority interupt is asserted during
   * the interrupt entry sequence for a lower priority interrupt to see why
   * this is the case.
   */

  active = alt_irq_pending ();
 2000108:	e0bfff15 	stw	r2,-4(fp)

  do
  {
    i = 0;
 200010c:	e03ffd15 	stw	zero,-12(fp)
    mask = 1;
 2000110:	00800044 	movi	r2,1
 2000114:	e0bffe15 	stw	r2,-8(fp)
     * called to clear the interrupt condition.
     */

    do
    {
      if (active & mask)
 2000118:	e0ffff17 	ldw	r3,-4(fp)
 200011c:	e0bffe17 	ldw	r2,-8(fp)
 2000120:	1884703a 	and	r2,r3,r2
 2000124:	1005003a 	cmpeq	r2,r2,zero
 2000128:	1000161e 	bne	r2,zero,2000184 <alt_irq_handler+0x98>
      { 
#ifdef ALT_ENHANCED_INTERRUPT_API_PRESENT
        alt_irq[i].handler(alt_irq[i].context); 
 200012c:	e0bffd17 	ldw	r2,-12(fp)
 2000130:	00c00074 	movhi	r3,1
 2000134:	18cb0104 	addi	r3,r3,11268
 2000138:	100490fa 	slli	r2,r2,3
 200013c:	10c5883a 	add	r2,r2,r3
 2000140:	11400017 	ldw	r5,0(r2)
 2000144:	e0bffd17 	ldw	r2,-12(fp)
 2000148:	00c00074 	movhi	r3,1
 200014c:	18cb0104 	addi	r3,r3,11268
 2000150:	100490fa 	slli	r2,r2,3
 2000154:	10c5883a 	add	r2,r2,r3
 2000158:	10800104 	addi	r2,r2,4
 200015c:	11000017 	ldw	r4,0(r2)
 2000160:	283ee83a 	callr	r5
#ifndef NIOS2_EIC_PRESENT
static ALT_INLINE alt_u32 ALT_ALWAYS_INLINE alt_irq_pending (void)
{
  alt_u32 active;

  NIOS2_READ_IPENDING (active);
 2000164:	0005313a 	rdctl	r2,ipending
 2000168:	e0bffb15 	stw	r2,-20(fp)

  return active;
 200016c:	e0bffb17 	ldw	r2,-20(fp)
      mask <<= 1;
      i++;

    } while (1);

    active = alt_irq_pending ();
 2000170:	e0bfff15 	stw	r2,-4(fp)
    
  } while (active);
 2000174:	e0bfff17 	ldw	r2,-4(fp)
 2000178:	1004c03a 	cmpne	r2,r2,zero
 200017c:	103fe31e 	bne	r2,zero,200010c <alt_irq_handler+0x20>
 2000180:	00000706 	br	20001a0 <alt_irq_handler+0xb4>
#else
        alt_irq[i].handler(alt_irq[i].context, i); 
#endif
        break;
      }
      mask <<= 1;
 2000184:	e0bffe17 	ldw	r2,-8(fp)
 2000188:	1085883a 	add	r2,r2,r2
 200018c:	e0bffe15 	stw	r2,-8(fp)
      i++;
 2000190:	e0bffd17 	ldw	r2,-12(fp)
 2000194:	10800044 	addi	r2,r2,1
 2000198:	e0bffd15 	stw	r2,-12(fp)

    } while (1);
 200019c:	003fde06 	br	2000118 <alt_irq_handler+0x2c>
  /*
   * Notify the operating system that interrupt processing is complete.
   */ 

  ALT_OS_INT_EXIT();
}
 20001a0:	e037883a 	mov	sp,fp
 20001a4:	dfc00117 	ldw	ra,4(sp)
 20001a8:	df000017 	ldw	fp,0(sp)
 20001ac:	dec00204 	addi	sp,sp,8
 20001b0:	f800283a 	ret

Disassembly of section .text:

00000194 <_start>:
#if (NIOS2_NUM_OF_SHADOW_REG_SETS == 0)    
    /*
     * Now that the caches are initialized, set up the stack pointer.
     * The value provided by the linker is assumed to be correctly aligned.
     */
    movhi sp, %hi(__alt_stack_pointer)
     194:	06c08034 	movhi	sp,512
    ori sp, sp, %lo(__alt_stack_pointer)
     198:	dec00014 	ori	sp,sp,0

    /* Set up the global pointer. */
    movhi gp, %hi(_gp)
     19c:	06800074 	movhi	gp,1
    ori gp, gp, %lo(_gp)
     1a0:	d6a35a14 	ori	gp,gp,36200
 */
#ifndef ALT_SIM_OPTIMIZE
    /* Log that the BSS is about to be cleared. */
    ALT_LOG_PUTS(alt_log_msg_bss)

    movhi r2, %hi(__bss_start)
     1a4:	00800074 	movhi	r2,1
    ori r2, r2, %lo(__bss_start)
     1a8:	108a1314 	ori	r2,r2,10316

    movhi r3, %hi(__bss_end)
     1ac:	00c00074 	movhi	r3,1
    ori r3, r3, %lo(__bss_end)
     1b0:	18cba514 	ori	r3,r3,11924

    beq r2, r3, 1f
     1b4:	10c00326 	beq	r2,r3,1c4 <_start+0x30>

0:
    stw zero, (r2)
     1b8:	10000015 	stw	zero,0(r2)
    addi r2, r2, 4
     1bc:	10800104 	addi	r2,r2,4
    bltu r2, r3, 0b
     1c0:	10fffd36 	bltu	r2,r3,1b8 <_start+0x24>
     * section aren't defined until alt_load() has been called).
     */
    mov   et, zero
#endif

    call alt_load
     1c4:	000c7580 	call	c758 <alt_load>

    /* Log that alt_main is about to be called. */
    ALT_LOG_PUTS(alt_log_msg_alt_main)

    /* Call the C entry point. It should never return. */
    call alt_main
     1c8:	000c9940 	call	c994 <alt_main>

000001cc <alt_after_alt_main>:

    /* Wait in infinite loop in case alt_main does return. */
alt_after_alt_main:
    br alt_after_alt_main
     1cc:	003fff06 	br	1cc <alt_after_alt_main>

000001d0 <removeHeadI>:
} ListElem;

ListElem* interruptVector[2]={NULL,NULL};


Process removeHeadI(int i){
     1d0:	defff904 	addi	sp,sp,-28
     1d4:	dfc00615 	stw	ra,24(sp)
     1d8:	df000515 	stw	fp,20(sp)
     1dc:	df000504 	addi	fp,sp,20
     1e0:	e13ffe15 	stw	r4,-8(fp)
    
    ListElem* removed = interruptVector[i];
     1e4:	e0bffe17 	ldw	r2,-8(fp)
     1e8:	1085883a 	add	r2,r2,r2
     1ec:	1087883a 	add	r3,r2,r2
     1f0:	d0a6b904 	addi	r2,gp,-25884
     1f4:	1885883a 	add	r2,r3,r2
     1f8:	10800017 	ldw	r2,0(r2)
     1fc:	e0bffd15 	stw	r2,-12(fp)
    if(interruptVector[i] != NULL){
     200:	e0bffe17 	ldw	r2,-8(fp)
     204:	1085883a 	add	r2,r2,r2
     208:	1087883a 	add	r3,r2,r2
     20c:	d0a6b904 	addi	r2,gp,-25884
     210:	1885883a 	add	r2,r3,r2
     214:	10800017 	ldw	r2,0(r2)
     218:	1005003a 	cmpeq	r2,r2,zero
     21c:	10000d1e 	bne	r2,zero,254 <removeHeadI+0x84>
        interruptVector[i] = interruptVector[i] -> next;
     220:	e17ffe17 	ldw	r5,-8(fp)
     224:	e0bffe17 	ldw	r2,-8(fp)
     228:	1085883a 	add	r2,r2,r2
     22c:	1087883a 	add	r3,r2,r2
     230:	d0a6b904 	addi	r2,gp,-25884
     234:	1885883a 	add	r2,r3,r2
     238:	10800017 	ldw	r2,0(r2)
     23c:	11000117 	ldw	r4,4(r2)
     240:	2945883a 	add	r2,r5,r5
     244:	1087883a 	add	r3,r2,r2
     248:	d0a6b904 	addi	r2,gp,-25884
     24c:	1885883a 	add	r2,r3,r2
     250:	11000015 	stw	r4,0(r2)
    }
    if(removed != NULL){
     254:	e0bffd17 	ldw	r2,-12(fp)
     258:	1005003a 	cmpeq	r2,r2,zero
     25c:	1000081e 	bne	r2,zero,280 <removeHeadI+0xb0>
        Process result = removed -> p; 
     260:	e0bffd17 	ldw	r2,-12(fp)
     264:	10800017 	ldw	r2,0(r2)
     268:	e0bffc15 	stw	r2,-16(fp)
		free(removed); 
     26c:	e13ffd17 	ldw	r4,-12(fp)
     270:	00029880 	call	2988 <free>
		return result;
     274:	e0bffc17 	ldw	r2,-16(fp)
     278:	e0bfff15 	stw	r2,-4(fp)
     27c:	00000306 	br	28c <removeHeadI+0xbc>
    }
    else{
        Process result = NULL;
     280:	e03ffb15 	stw	zero,-20(fp)
        return result;
     284:	e0bffb17 	ldw	r2,-20(fp)
     288:	e0bfff15 	stw	r2,-4(fp)
     28c:	e0bfff17 	ldw	r2,-4(fp)
    }  
}
     290:	e037883a 	mov	sp,fp
     294:	dfc00117 	ldw	ra,4(sp)
     298:	df000017 	ldw	fp,0(sp)
     29c:	dec00204 	addi	sp,sp,8
     2a0:	f800283a 	ret

000002a4 <insertTail>:

void insertTail(int i, Process toBeInserted){
     2a4:	defffa04 	addi	sp,sp,-24
     2a8:	dfc00515 	stw	ra,20(sp)
     2ac:	df000415 	stw	fp,16(sp)
     2b0:	df000404 	addi	fp,sp,16
     2b4:	e13ffe15 	stw	r4,-8(fp)
     2b8:	e17fff15 	stw	r5,-4(fp)
    
    ListElem* elem = malloc(sizeof(ListElem));
     2bc:	01000204 	movi	r4,8
     2c0:	000299c0 	call	299c <malloc>
     2c4:	e0bffd15 	stw	r2,-12(fp)
    elem -> p = toBeInserted;
     2c8:	e0fffd17 	ldw	r3,-12(fp)
     2cc:	e0bfff17 	ldw	r2,-4(fp)
     2d0:	18800015 	stw	r2,0(r3)
    elem -> next = NULL;
     2d4:	e0bffd17 	ldw	r2,-12(fp)
     2d8:	10000115 	stw	zero,4(r2)
    
    ListElem* temp= NULL;
     2dc:	e03ffc15 	stw	zero,-16(fp)
    if(interruptVector[i] == NULL){
     2e0:	e0bffe17 	ldw	r2,-8(fp)
     2e4:	1085883a 	add	r2,r2,r2
     2e8:	1087883a 	add	r3,r2,r2
     2ec:	d0a6b904 	addi	r2,gp,-25884
     2f0:	1885883a 	add	r2,r3,r2
     2f4:	10800017 	ldw	r2,0(r2)
     2f8:	1004c03a 	cmpne	r2,r2,zero
     2fc:	1000081e 	bne	r2,zero,320 <insertTail+0x7c>
        
       interruptVector[i] = elem; 
     300:	e0bffe17 	ldw	r2,-8(fp)
     304:	1085883a 	add	r2,r2,r2
     308:	1087883a 	add	r3,r2,r2
     30c:	d0a6b904 	addi	r2,gp,-25884
     310:	1887883a 	add	r3,r3,r2
     314:	e0bffd17 	ldw	r2,-12(fp)
     318:	18800015 	stw	r2,0(r3)
     31c:	00001206 	br	368 <insertTail+0xc4>
    }
    else{
        
        temp = interruptVector[i];
     320:	e0bffe17 	ldw	r2,-8(fp)
     324:	1085883a 	add	r2,r2,r2
     328:	1087883a 	add	r3,r2,r2
     32c:	d0a6b904 	addi	r2,gp,-25884
     330:	1885883a 	add	r2,r3,r2
     334:	10800017 	ldw	r2,0(r2)
     338:	e0bffc15 	stw	r2,-16(fp)
        while((temp -> next) != NULL){
     33c:	00000306 	br	34c <insertTail+0xa8>
        
            temp = temp -> next;
     340:	e0bffc17 	ldw	r2,-16(fp)
     344:	10800117 	ldw	r2,4(r2)
     348:	e0bffc15 	stw	r2,-16(fp)
       interruptVector[i] = elem; 
    }
    else{
        
        temp = interruptVector[i];
        while((temp -> next) != NULL){
     34c:	e0bffc17 	ldw	r2,-16(fp)
     350:	10800117 	ldw	r2,4(r2)
     354:	1004c03a 	cmpne	r2,r2,zero
     358:	103ff91e 	bne	r2,zero,340 <insertTail+0x9c>
        
            temp = temp -> next;
        }
        temp -> next = elem;  
     35c:	e0fffc17 	ldw	r3,-16(fp)
     360:	e0bffd17 	ldw	r2,-12(fp)
     364:	18800115 	stw	r2,4(r3)
    
    }
    
        
}
     368:	e037883a 	mov	sp,fp
     36c:	dfc00117 	ldw	ra,4(sp)
     370:	df000017 	ldw	fp,0(sp)
     374:	dec00204 	addi	sp,sp,8
     378:	f800283a 	ret

0000037c <handle_button_interrupts>:
/* A variable to hold the value of the button pio edge capture register. */
volatile int edge_capture = 0;


void handle_button_interrupts(void* context, alt_u32 id)
{
     37c:	defffa04 	addi	sp,sp,-24
     380:	dfc00515 	stw	ra,20(sp)
     384:	df000415 	stw	fp,16(sp)
     388:	df000404 	addi	fp,sp,16
     38c:	e13ffe15 	stw	r4,-8(fp)
     390:	e17fff15 	stw	r5,-4(fp)
    
    /* Cast context to edge_capture's type. It is important that this be 
     * declared volatile to avoid unwanted compiler optimization.
     */
    volatile int* edge_capture_ptr = (volatile int*) context;
     394:	e0bffe17 	ldw	r2,-8(fp)
     398:	e0bffd15 	stw	r2,-12(fp)
    
    /* Store the value in the Button's edge capture register in *context. */
    *edge_capture_ptr = IORD_ALTERA_AVALON_PIO_EDGE_CAP(BUTTONS_BASE);
     39c:	00808034 	movhi	r2,512
     3a0:	10940304 	addi	r2,r2,20492
     3a4:	10c00037 	ldwio	r3,0(r2)
     3a8:	e0bffd17 	ldw	r2,-12(fp)
     3ac:	10c00015 	stw	r3,0(r2)
	/* Reset the edge capture register. */
    IOWR_ALTERA_AVALON_PIO_EDGE_CAP(BUTTONS_BASE, 0xf);
     3b0:	00c08034 	movhi	r3,512
     3b4:	18d40304 	addi	r3,r3,20492
     3b8:	008003c4 	movi	r2,15
     3bc:	18800035 	stwio	r2,0(r3)
    
    /* Read the PIO to delay ISR exit. This is done to prevent a spurious interrupt in systems
     * with high processor -> pio latency and fast interrupts.  */
    IORD_ALTERA_AVALON_PIO_EDGE_CAP(BUTTONS_BASE);
     3c0:	00808034 	movhi	r2,512
     3c4:	10940304 	addi	r2,r2,20492
     3c8:	10800037 	ldwio	r2,0(r2)
    
    Process p2 = removeHeadI(1);
     3cc:	01000044 	movi	r4,1
     3d0:	00001d00 	call	1d0 <removeHeadI>
     3d4:	e0bffc15 	stw	r2,-16(fp)
   
    if(p2 != NULL){
     3d8:	e0bffc17 	ldw	r2,-16(fp)
     3dc:	1005003a 	cmpeq	r2,r2,zero
     3e0:	1000021e 	bne	r2,zero,3ec <handle_button_interrupts+0x70>
        
        transfer(p2);
     3e4:	e13ffc17 	ldw	r4,-16(fp)
     3e8:	00025f00 	call	25f0 <transfer>
       
    }
}
     3ec:	e037883a 	mov	sp,fp
     3f0:	dfc00117 	ldw	ra,4(sp)
     3f4:	df000017 	ldw	fp,0(sp)
     3f8:	dec00204 	addi	sp,sp,8
     3fc:	f800283a 	ret

00000400 <init_button>:

/* Initialize the button_pio. */

void init_button()
{
     400:	defffd04 	addi	sp,sp,-12
     404:	dfc00215 	stw	ra,8(sp)
     408:	df000115 	stw	fp,4(sp)
     40c:	df000104 	addi	fp,sp,4
    /* Recast the edge_capture pointer to match the alt_irq_register() function
     * prototype. */
    void* edge_capture_ptr = (void*) &edge_capture;
     410:	d0a6bb04 	addi	r2,gp,-25876
     414:	e0bfff15 	stw	r2,-4(fp)
    
    /* Enable all 4 button interrupts. */
    IOWR_ALTERA_AVALON_PIO_IRQ_MASK(BUTTONS_BASE, 0xf);
     418:	00c08034 	movhi	r3,512
     41c:	18d40204 	addi	r3,r3,20488
     420:	008003c4 	movi	r2,15
     424:	18800035 	stwio	r2,0(r3)
    
    /* Reset the edge capture register. */
    IOWR_ALTERA_AVALON_PIO_EDGE_CAP(BUTTONS_BASE, 0xf);
     428:	00c08034 	movhi	r3,512
     42c:	18d40304 	addi	r3,r3,20492
     430:	008003c4 	movi	r2,15
     434:	18800035 	stwio	r2,0(r3)
    
    /* Register the interrupt handler. */
    alt_irq_register (BUTTONS_IRQ, edge_capture_ptr, handle_button_interrupts);
     438:	01000084 	movi	r4,2
     43c:	e17fff17 	ldw	r5,-4(fp)
     440:	01800034 	movhi	r6,0
     444:	3180df04 	addi	r6,r6,892
     448:	000c4780 	call	c478 <alt_irq_register>
}
     44c:	e037883a 	mov	sp,fp
     450:	dfc00117 	ldw	ra,4(sp)
     454:	df000017 	ldw	fp,0(sp)
     458:	dec00204 	addi	sp,sp,8
     45c:	f800283a 	ret

00000460 <handle_timer_interrupts>:

/* A variable to set up context for timer interrupt. */
volatile int timer_capture = 0;

void handle_timer_interrupts(void* context, alt_u32 id)
{
     460:	defffb04 	addi	sp,sp,-20
     464:	dfc00415 	stw	ra,16(sp)
     468:	df000315 	stw	fp,12(sp)
     46c:	df000304 	addi	fp,sp,12
     470:	e13ffe15 	stw	r4,-8(fp)
     474:	e17fff15 	stw	r5,-4(fp)
	/* clear the interrupt */
	IOWR_ALTERA_AVALON_TIMER_STATUS (TIMER_BASE, 0);
     478:	00808034 	movhi	r2,512
     47c:	10942804 	addi	r2,r2,20640
     480:	10000035 	stwio	zero,0(r2)

	Process p2 = removeHeadI(0);
     484:	0009883a 	mov	r4,zero
     488:	00001d00 	call	1d0 <removeHeadI>
     48c:	e0bffd15 	stw	r2,-12(fp)
    if(p2 != NULL){
     490:	e0bffd17 	ldw	r2,-12(fp)
     494:	1005003a 	cmpeq	r2,r2,zero
     498:	1000021e 	bne	r2,zero,4a4 <handle_timer_interrupts+0x44>
        transfer(p2);
     49c:	e13ffd17 	ldw	r4,-12(fp)
     4a0:	00025f00 	call	25f0 <transfer>
    }
}
     4a4:	e037883a 	mov	sp,fp
     4a8:	dfc00117 	ldw	ra,4(sp)
     4ac:	df000017 	ldw	fp,0(sp)
     4b0:	dec00204 	addi	sp,sp,8
     4b4:	f800283a 	ret

000004b8 <init_clock>:

void init_clock()
{
     4b8:	defffd04 	addi	sp,sp,-12
     4bc:	dfc00215 	stw	ra,8(sp)
     4c0:	df000115 	stw	fp,4(sp)
     4c4:	df000104 	addi	fp,sp,4
    
  void* timer_capture_ptr = (void*) &timer_capture;  
     4c8:	d0a6bc04 	addi	r2,gp,-25872
     4cc:	e0bfff15 	stw	r2,-4(fp)
  /* set to free running mode */
  IOWR_ALTERA_AVALON_TIMER_CONTROL (TIMER_BASE, 
     4d0:	00c08034 	movhi	r3,512
     4d4:	18d42904 	addi	r3,r3,20644
     4d8:	008001c4 	movi	r2,7
     4dc:	18800035 	stwio	r2,0(r3)
            ALTERA_AVALON_TIMER_CONTROL_ITO_MSK  |
            ALTERA_AVALON_TIMER_CONTROL_CONT_MSK |
            ALTERA_AVALON_TIMER_CONTROL_START_MSK);

  /* register the interrupt handler, and enable the interrupt */ 
  alt_irq_register (TIMER_IRQ, timer_capture_ptr, handle_timer_interrupts);  
     4e0:	0009883a 	mov	r4,zero
     4e4:	e17fff17 	ldw	r5,-4(fp)
     4e8:	01800034 	movhi	r6,0
     4ec:	31811804 	addi	r6,r6,1120
     4f0:	000c4780 	call	c478 <alt_irq_register>
  
}
     4f4:	e037883a 	mov	sp,fp
     4f8:	dfc00117 	ldw	ra,4(sp)
     4fc:	df000017 	ldw	fp,0(sp)
     500:	dec00204 	addi	sp,sp,8
     504:	f800283a 	ret

00000508 <addLast>:


/*************** Functions for process list manipulation **********/

/* add element to the tail of the list */
static void addLast(int* list, int processId) {
     508:	defffc04 	addi	sp,sp,-16
     50c:	df000315 	stw	fp,12(sp)
     510:	df000304 	addi	fp,sp,12
     514:	e13ffe15 	stw	r4,-8(fp)
     518:	e17fff15 	stw	r5,-4(fp)
	if (*list == -1){
     51c:	e0bffe17 	ldw	r2,-8(fp)
     520:	10800017 	ldw	r2,0(r2)
     524:	10bfffd8 	cmpnei	r2,r2,-1
     528:	1000041e 	bne	r2,zero,53c <addLast+0x34>
		*list = processId;
     52c:	e0fffe17 	ldw	r3,-8(fp)
     530:	e0bfff17 	ldw	r2,-4(fp)
     534:	18800015 	stw	r2,0(r3)
     538:	00001a06 	br	5a4 <addLast+0x9c>
	}
	else {
		int temp = *list;
     53c:	e0bffe17 	ldw	r2,-8(fp)
     540:	10800017 	ldw	r2,0(r2)
     544:	e0bffd15 	stw	r2,-12(fp)
		while (processes[temp].next != -1){
     548:	00000706 	br	568 <addLast+0x60>
			temp = processes[temp].next;
     54c:	e0bffd17 	ldw	r2,-12(fp)
     550:	00c00074 	movhi	r3,1
     554:	18ca6804 	addi	r3,r3,10656
     558:	10800f24 	muli	r2,r2,60
     55c:	10c5883a 	add	r2,r2,r3
     560:	10800017 	ldw	r2,0(r2)
     564:	e0bffd15 	stw	r2,-12(fp)
	if (*list == -1){
		*list = processId;
	}
	else {
		int temp = *list;
		while (processes[temp].next != -1){
     568:	e0bffd17 	ldw	r2,-12(fp)
     56c:	00c00074 	movhi	r3,1
     570:	18ca6804 	addi	r3,r3,10656
     574:	10800f24 	muli	r2,r2,60
     578:	10c5883a 	add	r2,r2,r3
     57c:	10800017 	ldw	r2,0(r2)
     580:	10bfffd8 	cmpnei	r2,r2,-1
     584:	103ff11e 	bne	r2,zero,54c <addLast+0x44>
			temp = processes[temp].next;
		}
		processes[temp].next = processId;
     588:	e0bffd17 	ldw	r2,-12(fp)
     58c:	00c00074 	movhi	r3,1
     590:	18ca6804 	addi	r3,r3,10656
     594:	10800f24 	muli	r2,r2,60
     598:	10c7883a 	add	r3,r2,r3
     59c:	e0bfff17 	ldw	r2,-4(fp)
     5a0:	18800015 	stw	r2,0(r3)
	}
	processes[processId].next = -1;
     5a4:	e0bfff17 	ldw	r2,-4(fp)
     5a8:	00c00074 	movhi	r3,1
     5ac:	18ca6804 	addi	r3,r3,10656
     5b0:	10800f24 	muli	r2,r2,60
     5b4:	10c7883a 	add	r3,r2,r3
     5b8:	00bfffc4 	movi	r2,-1
     5bc:	18800015 	stw	r2,0(r3)
}
     5c0:	e037883a 	mov	sp,fp
     5c4:	df000017 	ldw	fp,0(sp)
     5c8:	dec00104 	addi	sp,sp,4
     5cc:	f800283a 	ret

000005d0 <addFirst>:

/* add element to the head of list */
static void addFirst(int* list, int processId){
     5d0:	defffd04 	addi	sp,sp,-12
     5d4:	df000215 	stw	fp,8(sp)
     5d8:	df000204 	addi	fp,sp,8
     5dc:	e13ffe15 	stw	r4,-8(fp)
     5e0:	e17fff15 	stw	r5,-4(fp)
	processes[processId].next = *list;
     5e4:	e13fff17 	ldw	r4,-4(fp)
     5e8:	e0bffe17 	ldw	r2,-8(fp)
     5ec:	11400017 	ldw	r5,0(r2)
     5f0:	00c00074 	movhi	r3,1
     5f4:	18ca6804 	addi	r3,r3,10656
     5f8:	20800f24 	muli	r2,r4,60
     5fc:	10c5883a 	add	r2,r2,r3
     600:	11400015 	stw	r5,0(r2)
	*list = processId;
     604:	e0fffe17 	ldw	r3,-8(fp)
     608:	e0bfff17 	ldw	r2,-4(fp)
     60c:	18800015 	stw	r2,0(r3)
}
     610:	e037883a 	mov	sp,fp
     614:	df000017 	ldw	fp,0(sp)
     618:	dec00104 	addi	sp,sp,4
     61c:	f800283a 	ret

00000620 <size>:

int size(int* list) {
     620:	defffd04 	addi	sp,sp,-12
     624:	df000215 	stw	fp,8(sp)
     628:	df000204 	addi	fp,sp,8
     62c:	e13fff15 	stw	r4,-4(fp)
	int i;
	for (i=0 ; *list != -1 ; i++) {
     630:	e03ffe15 	stw	zero,-8(fp)
     634:	00000a06 	br	660 <size+0x40>
		list = &processes[*list].next;
     638:	e0bfff17 	ldw	r2,-4(fp)
     63c:	10800017 	ldw	r2,0(r2)
     640:	10c00f24 	muli	r3,r2,60
     644:	00800074 	movhi	r2,1
     648:	108a6804 	addi	r2,r2,10656
     64c:	10c5883a 	add	r2,r2,r3
     650:	e0bfff15 	stw	r2,-4(fp)
	*list = processId;
}

int size(int* list) {
	int i;
	for (i=0 ; *list != -1 ; i++) {
     654:	e0bffe17 	ldw	r2,-8(fp)
     658:	10800044 	addi	r2,r2,1
     65c:	e0bffe15 	stw	r2,-8(fp)
     660:	e0bfff17 	ldw	r2,-4(fp)
     664:	10800017 	ldw	r2,0(r2)
     668:	10bfffd8 	cmpnei	r2,r2,-1
     66c:	103ff21e 	bne	r2,zero,638 <size+0x18>
		list = &processes[*list].next;
	}

	return i;
     670:	e0bffe17 	ldw	r2,-8(fp)
}
     674:	e037883a 	mov	sp,fp
     678:	df000017 	ldw	fp,0(sp)
     67c:	dec00104 	addi	sp,sp,4
     680:	f800283a 	ret

00000684 <removeHead>:

/* remove an element from the head of the list */
static int removeHead(int* list){
     684:	defffb04 	addi	sp,sp,-20
     688:	df000415 	stw	fp,16(sp)
     68c:	df000404 	addi	fp,sp,16
     690:	e13ffe15 	stw	r4,-8(fp)
	if (*list == -1){
     694:	e0bffe17 	ldw	r2,-8(fp)
     698:	10800017 	ldw	r2,0(r2)
     69c:	10bfffd8 	cmpnei	r2,r2,-1
     6a0:	1000031e 	bne	r2,zero,6b0 <removeHead+0x2c>
		return(-1);
     6a4:	00bfffc4 	movi	r2,-1
     6a8:	e0bfff15 	stw	r2,-4(fp)
     6ac:	00001806 	br	710 <removeHead+0x8c>
	}
	else {
		int head = *list;
     6b0:	e0bffe17 	ldw	r2,-8(fp)
     6b4:	10800017 	ldw	r2,0(r2)
     6b8:	e0bffd15 	stw	r2,-12(fp)
		int next = processes[*list].next;
     6bc:	e0bffe17 	ldw	r2,-8(fp)
     6c0:	10800017 	ldw	r2,0(r2)
     6c4:	00c00074 	movhi	r3,1
     6c8:	18ca6804 	addi	r3,r3,10656
     6cc:	10800f24 	muli	r2,r2,60
     6d0:	10c5883a 	add	r2,r2,r3
     6d4:	10800017 	ldw	r2,0(r2)
     6d8:	e0bffc15 	stw	r2,-16(fp)
		processes[*list].next = -1;
     6dc:	e0bffe17 	ldw	r2,-8(fp)
     6e0:	10800017 	ldw	r2,0(r2)
     6e4:	00c00074 	movhi	r3,1
     6e8:	18ca6804 	addi	r3,r3,10656
     6ec:	10800f24 	muli	r2,r2,60
     6f0:	10c7883a 	add	r3,r2,r3
     6f4:	00bfffc4 	movi	r2,-1
     6f8:	18800015 	stw	r2,0(r3)
		*list = next;
     6fc:	e0fffe17 	ldw	r3,-8(fp)
     700:	e0bffc17 	ldw	r2,-16(fp)
     704:	18800015 	stw	r2,0(r3)
		return head;
     708:	e0bffd17 	ldw	r2,-12(fp)
     70c:	e0bfff15 	stw	r2,-4(fp)
     710:	e0bfff17 	ldw	r2,-4(fp)
	}
}
     714:	e037883a 	mov	sp,fp
     718:	df000017 	ldw	fp,0(sp)
     71c:	dec00104 	addi	sp,sp,4
     720:	f800283a 	ret

00000724 <removeFromList>:

static void removeFromList(int* list, int processId) {
     724:	defffc04 	addi	sp,sp,-16
     728:	df000315 	stw	fp,12(sp)
     72c:	df000304 	addi	fp,sp,12
     730:	e13ffe15 	stw	r4,-8(fp)
     734:	e17fff15 	stw	r5,-4(fp)
	int i;

	for (i=0 ; *list != -1 ; i++) {
     738:	e03ffd15 	stw	zero,-12(fp)
     73c:	00001e06 	br	7b8 <removeFromList+0x94>
		if (*list == processId) {
     740:	e0bffe17 	ldw	r2,-8(fp)
     744:	10c00017 	ldw	r3,0(r2)
     748:	e0bfff17 	ldw	r2,-4(fp)
     74c:	1880101e 	bne	r3,r2,790 <removeFromList+0x6c>
			*list = processes[processId].next;
     750:	e0bfff17 	ldw	r2,-4(fp)
     754:	00c00074 	movhi	r3,1
     758:	18ca6804 	addi	r3,r3,10656
     75c:	10800f24 	muli	r2,r2,60
     760:	10c5883a 	add	r2,r2,r3
     764:	10c00017 	ldw	r3,0(r2)
     768:	e0bffe17 	ldw	r2,-8(fp)
     76c:	10c00015 	stw	r3,0(r2)
			processes[processId].next = -1;
     770:	e0bfff17 	ldw	r2,-4(fp)
     774:	00c00074 	movhi	r3,1
     778:	18ca6804 	addi	r3,r3,10656
     77c:	10800f24 	muli	r2,r2,60
     780:	10c7883a 	add	r3,r2,r3
     784:	00bfffc4 	movi	r2,-1
     788:	18800015 	stw	r2,0(r3)
			break;
     78c:	00000e06 	br	7c8 <removeFromList+0xa4>
		}
		list = &processes[*list].next;
     790:	e0bffe17 	ldw	r2,-8(fp)
     794:	10800017 	ldw	r2,0(r2)
     798:	10c00f24 	muli	r3,r2,60
     79c:	00800074 	movhi	r2,1
     7a0:	108a6804 	addi	r2,r2,10656
     7a4:	10c5883a 	add	r2,r2,r3
     7a8:	e0bffe15 	stw	r2,-8(fp)
}

static void removeFromList(int* list, int processId) {
	int i;

	for (i=0 ; *list != -1 ; i++) {
     7ac:	e0bffd17 	ldw	r2,-12(fp)
     7b0:	10800044 	addi	r2,r2,1
     7b4:	e0bffd15 	stw	r2,-12(fp)
     7b8:	e0bffe17 	ldw	r2,-8(fp)
     7bc:	10800017 	ldw	r2,0(r2)
     7c0:	10bfffd8 	cmpnei	r2,r2,-1
     7c4:	103fde1e 	bne	r2,zero,740 <removeFromList+0x1c>
			processes[processId].next = -1;
			break;
		}
		list = &processes[*list].next;
	}
}
     7c8:	e037883a 	mov	sp,fp
     7cc:	df000017 	ldw	fp,0(sp)
     7d0:	dec00104 	addi	sp,sp,4
     7d4:	f800283a 	ret

000007d8 <head>:

/* returns the head of the list */
static int head(int* list){
     7d8:	defffe04 	addi	sp,sp,-8
     7dc:	df000115 	stw	fp,4(sp)
     7e0:	df000104 	addi	fp,sp,4
     7e4:	e13fff15 	stw	r4,-4(fp)
	return *list;
     7e8:	e0bfff17 	ldw	r2,-4(fp)
     7ec:	10800017 	ldw	r2,0(r2)
}
     7f0:	e037883a 	mov	sp,fp
     7f4:	df000017 	ldw	fp,0(sp)
     7f8:	dec00104 	addi	sp,sp,4
     7fc:	f800283a 	ret

00000800 <isEmpty>:

/* checks if the list is empty */
static int isEmpty(int* list) {
     800:	defffe04 	addi	sp,sp,-8
     804:	df000115 	stw	fp,4(sp)
     808:	df000104 	addi	fp,sp,4
     80c:	e13fff15 	stw	r4,-4(fp)
	return *list < 0;
     810:	e0bfff17 	ldw	r2,-4(fp)
     814:	10800017 	ldw	r2,0(r2)
     818:	1004d7fa 	srli	r2,r2,31
}
     81c:	e037883a 	mov	sp,fp
     820:	df000017 	ldw	fp,0(sp)
     824:	dec00104 	addi	sp,sp,4
     828:	f800283a 	ret

0000082c <createProcess>:
 ***********************************************************
                    Kernel functions
************************************************************
* **********************************************************/

void createProcess (void (*f)(), int stackSize) {
     82c:	defff804 	addi	sp,sp,-32
     830:	dfc00715 	stw	ra,28(sp)
     834:	df000615 	stw	fp,24(sp)
     838:	dc000515 	stw	r16,20(sp)
     83c:	df000504 	addi	fp,sp,20
     840:	e13ffe15 	stw	r4,-8(fp)
     844:	e17fff15 	stw	r5,-4(fp)
	if (nextProcessId == MAX_PROC){
     848:	d0a6bd17 	ldw	r2,-25868(gp)
     84c:	10800298 	cmpnei	r2,r2,10
     850:	1000171e 	bne	r2,zero,8b0 <createProcess+0x84>
		ERR("Maximum number of processes reached!");
     854:	00800074 	movhi	r2,1
     858:	10835c04 	addi	r2,r2,3440
     85c:	10800017 	ldw	r2,0(r2)
     860:	14000317 	ldw	r16,12(r2)
     864:	d1200004 	addi	r4,gp,-32768
     868:	00007d80 	call	7d8 <head>
     86c:	100d883a 	mov	r6,r2
     870:	8009883a 	mov	r4,r16
     874:	01400074 	movhi	r5,1
     878:	297b0104 	addi	r5,r5,-5116
     87c:	000f883a 	mov	r7,zero
     880:	00029280 	call	2928 <fprintf>
     884:	e03ffc15 	stw	zero,-16(fp)
     888:	00000306 	br	898 <createProcess+0x6c>
     88c:	e0bffc17 	ldw	r2,-16(fp)
     890:	10800044 	addi	r2,r2,1
     894:	e0bffc15 	stw	r2,-16(fp)
     898:	e0fffc17 	ldw	r3,-16(fp)
     89c:	00800074 	movhi	r2,1
     8a0:	10893dc4 	addi	r2,r2,9463
     8a4:	10fff90e 	bge	r2,r3,88c <createProcess+0x60>
		exit(1);
     8a8:	01000044 	movi	r4,1
     8ac:	00028f00 	call	28f0 <exit>
	}
	unsigned int* stack = malloc(stackSize);
     8b0:	e13fff17 	ldw	r4,-4(fp)
     8b4:	000299c0 	call	299c <malloc>
     8b8:	e0bffd15 	stw	r2,-12(fp)
	if (stack==NULL) {
     8bc:	e0bffd17 	ldw	r2,-12(fp)
     8c0:	1004c03a 	cmpne	r2,r2,zero
     8c4:	1000171e 	bne	r2,zero,924 <createProcess+0xf8>
		ERR("Could not allocate stack. Exiting...");
     8c8:	00800074 	movhi	r2,1
     8cc:	10835c04 	addi	r2,r2,3440
     8d0:	10800017 	ldw	r2,0(r2)
     8d4:	14000317 	ldw	r16,12(r2)
     8d8:	d1200004 	addi	r4,gp,-32768
     8dc:	00007d80 	call	7d8 <head>
     8e0:	100d883a 	mov	r6,r2
     8e4:	8009883a 	mov	r4,r16
     8e8:	01400074 	movhi	r5,1
     8ec:	297b0e04 	addi	r5,r5,-5064
     8f0:	000f883a 	mov	r7,zero
     8f4:	00029280 	call	2928 <fprintf>
     8f8:	e03ffb15 	stw	zero,-20(fp)
     8fc:	00000306 	br	90c <createProcess+0xe0>
     900:	e0bffb17 	ldw	r2,-20(fp)
     904:	10800044 	addi	r2,r2,1
     908:	e0bffb15 	stw	r2,-20(fp)
     90c:	e0fffb17 	ldw	r3,-20(fp)
     910:	00800074 	movhi	r2,1
     914:	10893dc4 	addi	r2,r2,9463
     918:	10fff90e 	bge	r2,r3,900 <createProcess+0xd4>
		exit(1);
     91c:	01000044 	movi	r4,1
     920:	00028f00 	call	28f0 <exit>
	}
	processes[nextProcessId].p = newProcess(f, stack, stackSize);
     924:	d426bd17 	ldw	r16,-25868(gp)
     928:	e13ffe17 	ldw	r4,-8(fp)
     92c:	e17ffd17 	ldw	r5,-12(fp)
     930:	e1bfff17 	ldw	r6,-4(fp)
     934:	00025940 	call	2594 <newProcess>
     938:	1009883a 	mov	r4,r2
     93c:	00c00074 	movhi	r3,1
     940:	18ca6804 	addi	r3,r3,10656
     944:	80800f24 	muli	r2,r16,60
     948:	10c5883a 	add	r2,r2,r3
     94c:	10800104 	addi	r2,r2,4
     950:	11000015 	stw	r4,0(r2)
	processes[nextProcessId].next = -1;
     954:	d0a6bd17 	ldw	r2,-25868(gp)
     958:	00c00074 	movhi	r3,1
     95c:	18ca6804 	addi	r3,r3,10656
     960:	10800f24 	muli	r2,r2,60
     964:	10c7883a 	add	r3,r2,r3
     968:	00bfffc4 	movi	r2,-1
     96c:	18800015 	stw	r2,0(r3)
	processes[nextProcessId].currentMonitor = 0;
     970:	d0a6bd17 	ldw	r2,-25868(gp)
     974:	00c00074 	movhi	r3,1
     978:	18ca6804 	addi	r3,r3,10656
     97c:	10800f24 	muli	r2,r2,60
     980:	10c5883a 	add	r2,r2,r3
     984:	10800204 	addi	r2,r2,8
     988:	10000015 	stw	zero,0(r2)
	processes[nextProcessId].monitors[0] = -1;
     98c:	d0a6bd17 	ldw	r2,-25868(gp)
     990:	00c00074 	movhi	r3,1
     994:	18ca6804 	addi	r3,r3,10656
     998:	10800f24 	muli	r2,r2,60
     99c:	10c5883a 	add	r2,r2,r3
     9a0:	10c00304 	addi	r3,r2,12
     9a4:	00bfffc4 	movi	r2,-1
     9a8:	18800015 	stw	r2,0(r3)
	processes[nextProcessId].timeout = -1;
     9ac:	d0a6bd17 	ldw	r2,-25868(gp)
     9b0:	00c00074 	movhi	r3,1
     9b4:	18ca6804 	addi	r3,r3,10656
     9b8:	10800f24 	muli	r2,r2,60
     9bc:	10c5883a 	add	r2,r2,r3
     9c0:	10c00e04 	addi	r3,r2,56
     9c4:	00bfffc4 	movi	r2,-1
     9c8:	18800015 	stw	r2,0(r3)

	addLast(&readyList, nextProcessId);
     9cc:	d166bd17 	ldw	r5,-25868(gp)
     9d0:	d1200004 	addi	r4,gp,-32768
     9d4:	00005080 	call	508 <addLast>
	nextProcessId++;
     9d8:	d0a6bd17 	ldw	r2,-25868(gp)
     9dc:	10800044 	addi	r2,r2,1
     9e0:	d0a6bd15 	stw	r2,-25868(gp)
}
     9e4:	e037883a 	mov	sp,fp
     9e8:	dfc00217 	ldw	ra,8(sp)
     9ec:	df000117 	ldw	fp,4(sp)
     9f0:	dc000017 	ldw	r16,0(sp)
     9f4:	dec00304 	addi	sp,sp,12
     9f8:	f800283a 	ret

000009fc <createSpecialProcess>:

int createSpecialProcess(void (*f)()) {
     9fc:	defff804 	addi	sp,sp,-32
     a00:	dfc00715 	stw	ra,28(sp)
     a04:	df000615 	stw	fp,24(sp)
     a08:	dc000515 	stw	r16,20(sp)
     a0c:	df000504 	addi	fp,sp,20
     a10:	e13fff15 	stw	r4,-4(fp)

	if (nextProcessId == MAX_PROC){
     a14:	d0a6bd17 	ldw	r2,-25868(gp)
     a18:	10800298 	cmpnei	r2,r2,10
     a1c:	1000171e 	bne	r2,zero,a7c <createSpecialProcess+0x80>
		ERR("Maximum number of processes reached!");
     a20:	00800074 	movhi	r2,1
     a24:	10835c04 	addi	r2,r2,3440
     a28:	10800017 	ldw	r2,0(r2)
     a2c:	14000317 	ldw	r16,12(r2)
     a30:	d1200004 	addi	r4,gp,-32768
     a34:	00007d80 	call	7d8 <head>
     a38:	100d883a 	mov	r6,r2
     a3c:	8009883a 	mov	r4,r16
     a40:	01400074 	movhi	r5,1
     a44:	297b0104 	addi	r5,r5,-5116
     a48:	000f883a 	mov	r7,zero
     a4c:	00029280 	call	2928 <fprintf>
     a50:	e03ffc15 	stw	zero,-16(fp)
     a54:	00000306 	br	a64 <createSpecialProcess+0x68>
     a58:	e0bffc17 	ldw	r2,-16(fp)
     a5c:	10800044 	addi	r2,r2,1
     a60:	e0bffc15 	stw	r2,-16(fp)
     a64:	e0fffc17 	ldw	r3,-16(fp)
     a68:	00800074 	movhi	r2,1
     a6c:	10893dc4 	addi	r2,r2,9463
     a70:	10fff90e 	bge	r2,r3,a58 <createSpecialProcess+0x5c>
		exit(1);
     a74:	01000044 	movi	r4,1
     a78:	00028f00 	call	28f0 <exit>
	}

	unsigned int* stack = malloc(STACK_SIZE);
     a7c:	0109c404 	movi	r4,10000
     a80:	000299c0 	call	299c <malloc>
     a84:	e0bffe15 	stw	r2,-8(fp)
	if (stack==NULL) {
     a88:	e0bffe17 	ldw	r2,-8(fp)
     a8c:	1004c03a 	cmpne	r2,r2,zero
     a90:	1000171e 	bne	r2,zero,af0 <createSpecialProcess+0xf4>
		ERR("Could not allocate stack. Exiting...");
     a94:	00800074 	movhi	r2,1
     a98:	10835c04 	addi	r2,r2,3440
     a9c:	10800017 	ldw	r2,0(r2)
     aa0:	14000317 	ldw	r16,12(r2)
     aa4:	d1200004 	addi	r4,gp,-32768
     aa8:	00007d80 	call	7d8 <head>
     aac:	100d883a 	mov	r6,r2
     ab0:	8009883a 	mov	r4,r16
     ab4:	01400074 	movhi	r5,1
     ab8:	297b0e04 	addi	r5,r5,-5064
     abc:	000f883a 	mov	r7,zero
     ac0:	00029280 	call	2928 <fprintf>
     ac4:	e03ffb15 	stw	zero,-20(fp)
     ac8:	00000306 	br	ad8 <createSpecialProcess+0xdc>
     acc:	e0bffb17 	ldw	r2,-20(fp)
     ad0:	10800044 	addi	r2,r2,1
     ad4:	e0bffb15 	stw	r2,-20(fp)
     ad8:	e0fffb17 	ldw	r3,-20(fp)
     adc:	00800074 	movhi	r2,1
     ae0:	10893dc4 	addi	r2,r2,9463
     ae4:	10fff90e 	bge	r2,r3,acc <createSpecialProcess+0xd0>
		exit(1);
     ae8:	01000044 	movi	r4,1
     aec:	00028f00 	call	28f0 <exit>
	}
	processes[nextProcessId].p = newProcess(f, stack, STACK_SIZE);
     af0:	d426bd17 	ldw	r16,-25868(gp)
     af4:	e13fff17 	ldw	r4,-4(fp)
     af8:	e17ffe17 	ldw	r5,-8(fp)
     afc:	0189c404 	movi	r6,10000
     b00:	00025940 	call	2594 <newProcess>
     b04:	1009883a 	mov	r4,r2
     b08:	00c00074 	movhi	r3,1
     b0c:	18ca6804 	addi	r3,r3,10656
     b10:	80800f24 	muli	r2,r16,60
     b14:	10c5883a 	add	r2,r2,r3
     b18:	10800104 	addi	r2,r2,4
     b1c:	11000015 	stw	r4,0(r2)
	processes[nextProcessId].next = -1;
     b20:	d0a6bd17 	ldw	r2,-25868(gp)
     b24:	00c00074 	movhi	r3,1
     b28:	18ca6804 	addi	r3,r3,10656
     b2c:	10800f24 	muli	r2,r2,60
     b30:	10c7883a 	add	r3,r2,r3
     b34:	00bfffc4 	movi	r2,-1
     b38:	18800015 	stw	r2,0(r3)
	processes[nextProcessId].currentMonitor = 0;
     b3c:	d0a6bd17 	ldw	r2,-25868(gp)
     b40:	00c00074 	movhi	r3,1
     b44:	18ca6804 	addi	r3,r3,10656
     b48:	10800f24 	muli	r2,r2,60
     b4c:	10c5883a 	add	r2,r2,r3
     b50:	10800204 	addi	r2,r2,8
     b54:	10000015 	stw	zero,0(r2)
	processes[nextProcessId].monitors[0] = -1;
     b58:	d0a6bd17 	ldw	r2,-25868(gp)
     b5c:	00c00074 	movhi	r3,1
     b60:	18ca6804 	addi	r3,r3,10656
     b64:	10800f24 	muli	r2,r2,60
     b68:	10c5883a 	add	r2,r2,r3
     b6c:	10c00304 	addi	r3,r2,12
     b70:	00bfffc4 	movi	r2,-1
     b74:	18800015 	stw	r2,0(r3)
	processes[nextProcessId].timeout = -1;
     b78:	d0a6bd17 	ldw	r2,-25868(gp)
     b7c:	00c00074 	movhi	r3,1
     b80:	18ca6804 	addi	r3,r3,10656
     b84:	10800f24 	muli	r2,r2,60
     b88:	10c5883a 	add	r2,r2,r3
     b8c:	10c00e04 	addi	r3,r2,56
     b90:	00bfffc4 	movi	r2,-1
     b94:	18800015 	stw	r2,0(r3)

	int pid = nextProcessId;
     b98:	d0a6bd17 	ldw	r2,-25868(gp)
     b9c:	e0bffd15 	stw	r2,-12(fp)
	nextProcessId++;
     ba0:	d0a6bd17 	ldw	r2,-25868(gp)
     ba4:	10800044 	addi	r2,r2,1
     ba8:	d0a6bd15 	stw	r2,-25868(gp)
	return pid;
     bac:	e0bffd17 	ldw	r2,-12(fp)
}
     bb0:	e037883a 	mov	sp,fp
     bb4:	dfc00217 	ldw	ra,8(sp)
     bb8:	df000117 	ldw	fp,4(sp)
     bbc:	dc000017 	ldw	r16,0(sp)
     bc0:	dec00304 	addi	sp,sp,12
     bc4:	f800283a 	ret

00000bc8 <checkAndTransfer>:

static void checkAndTransfer() {
     bc8:	defffc04 	addi	sp,sp,-16
     bcc:	dfc00315 	stw	ra,12(sp)
     bd0:	df000215 	stw	fp,8(sp)
     bd4:	df000204 	addi	fp,sp,8
	/*if (isEmpty(&readyList)){
		/*ERR("No processes in the ready list! Exiting...");
		exit(1);
	}*/
	int pid = isEmpty(&readyList) ? idle_pid : head(&readyList);
     bd8:	d1200004 	addi	r4,gp,-32768
     bdc:	00008000 	call	800 <isEmpty>
     be0:	1004c03a 	cmpne	r2,r2,zero
     be4:	1000041e 	bne	r2,zero,bf8 <checkAndTransfer+0x30>
     be8:	d1200004 	addi	r4,gp,-32768
     bec:	00007d80 	call	7d8 <head>
     bf0:	e0bfff15 	stw	r2,-4(fp)
     bf4:	00000206 	br	c00 <checkAndTransfer+0x38>
     bf8:	d0a6bf17 	ldw	r2,-25860(gp)
     bfc:	e0bfff15 	stw	r2,-4(fp)
     c00:	e0bfff17 	ldw	r2,-4(fp)
     c04:	e0bffe15 	stw	r2,-8(fp)
	transfer(processes[pid].p);
     c08:	e0bffe17 	ldw	r2,-8(fp)
     c0c:	00c00074 	movhi	r3,1
     c10:	18ca6804 	addi	r3,r3,10656
     c14:	10800f24 	muli	r2,r2,60
     c18:	10c5883a 	add	r2,r2,r3
     c1c:	10800104 	addi	r2,r2,4
     c20:	11000017 	ldw	r4,0(r2)
     c24:	00025f00 	call	25f0 <transfer>
}
     c28:	e037883a 	mov	sp,fp
     c2c:	dfc00117 	ldw	ra,4(sp)
     c30:	df000017 	ldw	fp,0(sp)
     c34:	dec00204 	addi	sp,sp,8
     c38:	f800283a 	ret

00000c3c <yield>:



void yield(){
     c3c:	defffc04 	addi	sp,sp,-16
     c40:	dfc00315 	stw	ra,12(sp)
     c44:	df000215 	stw	fp,8(sp)
     c48:	df000204 	addi	fp,sp,8
	maskInterrupts();
     c4c:	000278c0 	call	278c <maskInterrupts>
	int pid = isEmpty(&readyList) ? idle_pid : removeHead(&readyList);
     c50:	d1200004 	addi	r4,gp,-32768
     c54:	00008000 	call	800 <isEmpty>
     c58:	1004c03a 	cmpne	r2,r2,zero
     c5c:	1000041e 	bne	r2,zero,c70 <yield+0x34>
     c60:	d1200004 	addi	r4,gp,-32768
     c64:	00006840 	call	684 <removeHead>
     c68:	e0bfff15 	stw	r2,-4(fp)
     c6c:	00000206 	br	c78 <yield+0x3c>
     c70:	d0a6bf17 	ldw	r2,-25860(gp)
     c74:	e0bfff15 	stw	r2,-4(fp)
     c78:	e0bfff17 	ldw	r2,-4(fp)
     c7c:	e0bffe15 	stw	r2,-8(fp)
	addLast(&readyList, pid);
     c80:	d1200004 	addi	r4,gp,-32768
     c84:	e17ffe17 	ldw	r5,-8(fp)
     c88:	00005080 	call	508 <addLast>
	checkAndTransfer();
     c8c:	0000bc80 	call	bc8 <checkAndTransfer>
	allowInterrupts();
     c90:	00027980 	call	2798 <allowInterrupts>
}
     c94:	e037883a 	mov	sp,fp
     c98:	dfc00117 	ldw	ra,4(sp)
     c9c:	df000017 	ldw	fp,0(sp)
     ca0:	dec00204 	addi	sp,sp,8
     ca4:	f800283a 	ret

00000ca8 <createMonitor>:

int createMonitor(){
     ca8:	defffb04 	addi	sp,sp,-20
     cac:	dfc00415 	stw	ra,16(sp)
     cb0:	df000315 	stw	fp,12(sp)
     cb4:	dc000215 	stw	r16,8(sp)
     cb8:	df000204 	addi	fp,sp,8
	maskInterrupts();
     cbc:	000278c0 	call	278c <maskInterrupts>
	if (nextMonitorId == MAX_MONITORS){
     cc0:	d0a6be17 	ldw	r2,-25864(gp)
     cc4:	10800298 	cmpnei	r2,r2,10
     cc8:	1000171e 	bne	r2,zero,d28 <createMonitor+0x80>
		ERR("Maximum number of monitors reached!\n");
     ccc:	00800074 	movhi	r2,1
     cd0:	10835c04 	addi	r2,r2,3440
     cd4:	10800017 	ldw	r2,0(r2)
     cd8:	14000317 	ldw	r16,12(r2)
     cdc:	d1200004 	addi	r4,gp,-32768
     ce0:	00007d80 	call	7d8 <head>
     ce4:	100d883a 	mov	r6,r2
     ce8:	8009883a 	mov	r4,r16
     cec:	01400074 	movhi	r5,1
     cf0:	297b1b04 	addi	r5,r5,-5012
     cf4:	000f883a 	mov	r7,zero
     cf8:	00029280 	call	2928 <fprintf>
     cfc:	e03ffe15 	stw	zero,-8(fp)
     d00:	00000306 	br	d10 <createMonitor+0x68>
     d04:	e0bffe17 	ldw	r2,-8(fp)
     d08:	10800044 	addi	r2,r2,1
     d0c:	e0bffe15 	stw	r2,-8(fp)
     d10:	e0fffe17 	ldw	r3,-8(fp)
     d14:	00800074 	movhi	r2,1
     d18:	10893dc4 	addi	r2,r2,9463
     d1c:	10fff90e 	bge	r2,r3,d04 <createMonitor+0x5c>
		exit(1);
     d20:	01000044 	movi	r4,1
     d24:	00028f00 	call	28f0 <exit>
	}
	monitors[nextMonitorId].timesTaken = 0;
     d28:	d0a6be17 	ldw	r2,-25864(gp)
     d2c:	00c00074 	movhi	r3,1
     d30:	18ca4004 	addi	r3,r3,10496
     d34:	1004913a 	slli	r2,r2,4
     d38:	10c5883a 	add	r2,r2,r3
     d3c:	10000015 	stw	zero,0(r2)
	monitors[nextMonitorId].takenBy = -1;
     d40:	d0a6be17 	ldw	r2,-25864(gp)
     d44:	00c00074 	movhi	r3,1
     d48:	18ca4004 	addi	r3,r3,10496
     d4c:	1004913a 	slli	r2,r2,4
     d50:	10c5883a 	add	r2,r2,r3
     d54:	10c00104 	addi	r3,r2,4
     d58:	00bfffc4 	movi	r2,-1
     d5c:	18800015 	stw	r2,0(r3)
	monitors[nextMonitorId].entryList = -1;
     d60:	d0a6be17 	ldw	r2,-25864(gp)
     d64:	00c00074 	movhi	r3,1
     d68:	18ca4004 	addi	r3,r3,10496
     d6c:	1004913a 	slli	r2,r2,4
     d70:	10c5883a 	add	r2,r2,r3
     d74:	10c00204 	addi	r3,r2,8
     d78:	00bfffc4 	movi	r2,-1
     d7c:	18800015 	stw	r2,0(r3)
	monitors[nextMonitorId].waitingList = -1;
     d80:	d0a6be17 	ldw	r2,-25864(gp)
     d84:	00c00074 	movhi	r3,1
     d88:	18ca4004 	addi	r3,r3,10496
     d8c:	1004913a 	slli	r2,r2,4
     d90:	10c5883a 	add	r2,r2,r3
     d94:	10c00304 	addi	r3,r2,12
     d98:	00bfffc4 	movi	r2,-1
     d9c:	18800015 	stw	r2,0(r3)
	int mid = nextMonitorId;
     da0:	d0a6be17 	ldw	r2,-25864(gp)
     da4:	e0bfff15 	stw	r2,-4(fp)
	nextMonitorId++;
     da8:	d0a6be17 	ldw	r2,-25864(gp)
     dac:	10800044 	addi	r2,r2,1
     db0:	d0a6be15 	stw	r2,-25864(gp)
	allowInterrupts();
     db4:	00027980 	call	2798 <allowInterrupts>
	return mid;
     db8:	e0bfff17 	ldw	r2,-4(fp)
}
     dbc:	e037883a 	mov	sp,fp
     dc0:	dfc00217 	ldw	ra,8(sp)
     dc4:	df000117 	ldw	fp,4(sp)
     dc8:	dc000017 	ldw	r16,0(sp)
     dcc:	dec00304 	addi	sp,sp,12
     dd0:	f800283a 	ret

00000dd4 <getCurrentMonitor>:

static int getCurrentMonitor(int pid) {
     dd4:	defffd04 	addi	sp,sp,-12
     dd8:	df000215 	stw	fp,8(sp)
     ddc:	df000204 	addi	fp,sp,8
     de0:	e13fff15 	stw	r4,-4(fp)
	int result = processes[pid].monitors[processes[pid].currentMonitor];
     de4:	e17fff17 	ldw	r5,-4(fp)
     de8:	e0bfff17 	ldw	r2,-4(fp)
     dec:	00c00074 	movhi	r3,1
     df0:	18ca6804 	addi	r3,r3,10656
     df4:	10800f24 	muli	r2,r2,60
     df8:	10c5883a 	add	r2,r2,r3
     dfc:	10800204 	addi	r2,r2,8
     e00:	10c00017 	ldw	r3,0(r2)
     e04:	01000074 	movhi	r4,1
     e08:	210a6804 	addi	r4,r4,10656
     e0c:	288003e4 	muli	r2,r5,15
     e10:	10c5883a 	add	r2,r2,r3
     e14:	1085883a 	add	r2,r2,r2
     e18:	1085883a 	add	r2,r2,r2
     e1c:	1105883a 	add	r2,r2,r4
     e20:	10800304 	addi	r2,r2,12
     e24:	10800017 	ldw	r2,0(r2)
     e28:	e0bffe15 	stw	r2,-8(fp)
	return result;
     e2c:	e0bffe17 	ldw	r2,-8(fp)
}
     e30:	e037883a 	mov	sp,fp
     e34:	df000017 	ldw	fp,0(sp)
     e38:	dec00104 	addi	sp,sp,4
     e3c:	f800283a 	ret

00000e40 <enterMonitor>:

void enterMonitor(int monitorID) {
     e40:	defff904 	addi	sp,sp,-28
     e44:	dfc00615 	stw	ra,24(sp)
     e48:	df000515 	stw	fp,20(sp)
     e4c:	dc000415 	stw	r16,16(sp)
     e50:	df000404 	addi	fp,sp,16
     e54:	e13fff15 	stw	r4,-4(fp)
	maskInterrupts();
     e58:	000278c0 	call	278c <maskInterrupts>

	int myID = head(&readyList);
     e5c:	d1200004 	addi	r4,gp,-32768
     e60:	00007d80 	call	7d8 <head>
     e64:	e0bffe15 	stw	r2,-8(fp)

	if (monitorID > nextMonitorId || monitorID < 0) {
     e68:	d0e6be17 	ldw	r3,-25864(gp)
     e6c:	e0bfff17 	ldw	r2,-4(fp)
     e70:	18800316 	blt	r3,r2,e80 <enterMonitor+0x40>
     e74:	e0bfff17 	ldw	r2,-4(fp)
     e78:	1004403a 	cmpge	r2,r2,zero
     e7c:	10000e1e 	bne	r2,zero,eb8 <enterMonitor+0x78>
		ERRA("Monitor %d does not exist.", nextMonitorId);
     e80:	00800074 	movhi	r2,1
     e84:	10835c04 	addi	r2,r2,3440
     e88:	10800017 	ldw	r2,0(r2)
     e8c:	14000317 	ldw	r16,12(r2)
     e90:	d1200004 	addi	r4,gp,-32768
     e94:	00007d80 	call	7d8 <head>
     e98:	100d883a 	mov	r6,r2
     e9c:	d1e6be17 	ldw	r7,-25864(gp)
     ea0:	8009883a 	mov	r4,r16
     ea4:	01400074 	movhi	r5,1
     ea8:	297b2804 	addi	r5,r5,-4960
     eac:	00029280 	call	2928 <fprintf>
		exit(1);
     eb0:	01000044 	movi	r4,1
     eb4:	00028f00 	call	28f0 <exit>
	}

	if (processes[myID].currentMonitor >= MAX_MONITORS) {
     eb8:	e0bffe17 	ldw	r2,-8(fp)
     ebc:	00c00074 	movhi	r3,1
     ec0:	18ca6804 	addi	r3,r3,10656
     ec4:	10800f24 	muli	r2,r2,60
     ec8:	10c5883a 	add	r2,r2,r3
     ecc:	10800204 	addi	r2,r2,8
     ed0:	10800017 	ldw	r2,0(r2)
     ed4:	10800290 	cmplti	r2,r2,10
     ed8:	1000171e 	bne	r2,zero,f38 <enterMonitor+0xf8>
		ERR("Too many nested calls.");
     edc:	00800074 	movhi	r2,1
     ee0:	10835c04 	addi	r2,r2,3440
     ee4:	10800017 	ldw	r2,0(r2)
     ee8:	14000317 	ldw	r16,12(r2)
     eec:	d1200004 	addi	r4,gp,-32768
     ef0:	00007d80 	call	7d8 <head>
     ef4:	100d883a 	mov	r6,r2
     ef8:	8009883a 	mov	r4,r16
     efc:	01400074 	movhi	r5,1
     f00:	297b3204 	addi	r5,r5,-4920
     f04:	000f883a 	mov	r7,zero
     f08:	00029280 	call	2928 <fprintf>
     f0c:	e03ffd15 	stw	zero,-12(fp)
     f10:	00000306 	br	f20 <enterMonitor+0xe0>
     f14:	e0bffd17 	ldw	r2,-12(fp)
     f18:	10800044 	addi	r2,r2,1
     f1c:	e0bffd15 	stw	r2,-12(fp)
     f20:	e0fffd17 	ldw	r3,-12(fp)
     f24:	00800074 	movhi	r2,1
     f28:	10893dc4 	addi	r2,r2,9463
     f2c:	10fff90e 	bge	r2,r3,f14 <enterMonitor+0xd4>
		exit(1);
     f30:	01000044 	movi	r4,1
     f34:	00028f00 	call	28f0 <exit>
	}

	if (monitors[monitorID].timesTaken > 0 && monitors[monitorID].takenBy != myID) {
     f38:	e0bfff17 	ldw	r2,-4(fp)
     f3c:	00c00074 	movhi	r3,1
     f40:	18ca4004 	addi	r3,r3,10496
     f44:	1004913a 	slli	r2,r2,4
     f48:	10c5883a 	add	r2,r2,r3
     f4c:	10800017 	ldw	r2,0(r2)
     f50:	10800050 	cmplti	r2,r2,1
     f54:	10003c1e 	bne	r2,zero,1048 <enterMonitor+0x208>
     f58:	e0bfff17 	ldw	r2,-4(fp)
     f5c:	00c00074 	movhi	r3,1
     f60:	18ca4004 	addi	r3,r3,10496
     f64:	1004913a 	slli	r2,r2,4
     f68:	10c5883a 	add	r2,r2,r3
     f6c:	10800104 	addi	r2,r2,4
     f70:	10c00017 	ldw	r3,0(r2)
     f74:	e0bffe17 	ldw	r2,-8(fp)
     f78:	18803326 	beq	r3,r2,1048 <enterMonitor+0x208>
		removeHead(&readyList);
     f7c:	d1200004 	addi	r4,gp,-32768
     f80:	00006840 	call	684 <removeHead>
		addLast(&(monitors[monitorID].entryList), myID);
     f84:	e0bfff17 	ldw	r2,-4(fp)
     f88:	1004913a 	slli	r2,r2,4
     f8c:	10c00204 	addi	r3,r2,8
     f90:	00800074 	movhi	r2,1
     f94:	108a4004 	addi	r2,r2,10496
     f98:	1889883a 	add	r4,r3,r2
     f9c:	e17ffe17 	ldw	r5,-8(fp)
     fa0:	00005080 	call	508 <addLast>
		checkAndTransfer();
     fa4:	0000bc80 	call	bc8 <checkAndTransfer>

		/* I am woken up by exitMonitor -- check if the monitor state is consistent */
		if ((monitors[monitorID].timesTaken != 1) || (monitors[monitorID].takenBy != myID)) {
     fa8:	e0bfff17 	ldw	r2,-4(fp)
     fac:	00c00074 	movhi	r3,1
     fb0:	18ca4004 	addi	r3,r3,10496
     fb4:	1004913a 	slli	r2,r2,4
     fb8:	10c5883a 	add	r2,r2,r3
     fbc:	10800017 	ldw	r2,0(r2)
     fc0:	10800058 	cmpnei	r2,r2,1
     fc4:	1000091e 	bne	r2,zero,fec <enterMonitor+0x1ac>
     fc8:	e0bfff17 	ldw	r2,-4(fp)
     fcc:	00c00074 	movhi	r3,1
     fd0:	18ca4004 	addi	r3,r3,10496
     fd4:	1004913a 	slli	r2,r2,4
     fd8:	10c5883a 	add	r2,r2,r3
     fdc:	10800104 	addi	r2,r2,4
     fe0:	10c00017 	ldw	r3,0(r2)
     fe4:	e0bffe17 	ldw	r2,-8(fp)
     fe8:	18802b26 	beq	r3,r2,1098 <enterMonitor+0x258>
			ERR("The kernel has performed an illegal operation. Please contact customer support.");
     fec:	00800074 	movhi	r2,1
     ff0:	10835c04 	addi	r2,r2,3440
     ff4:	10800017 	ldw	r2,0(r2)
     ff8:	14000317 	ldw	r16,12(r2)
     ffc:	d1200004 	addi	r4,gp,-32768
    1000:	00007d80 	call	7d8 <head>
    1004:	100d883a 	mov	r6,r2
    1008:	8009883a 	mov	r4,r16
    100c:	01400074 	movhi	r5,1
    1010:	297b3b04 	addi	r5,r5,-4884
    1014:	000f883a 	mov	r7,zero
    1018:	00029280 	call	2928 <fprintf>
    101c:	e03ffc15 	stw	zero,-16(fp)
    1020:	00000306 	br	1030 <enterMonitor+0x1f0>
    1024:	e0bffc17 	ldw	r2,-16(fp)
    1028:	10800044 	addi	r2,r2,1
    102c:	e0bffc15 	stw	r2,-16(fp)
    1030:	e0fffc17 	ldw	r3,-16(fp)
    1034:	00800074 	movhi	r2,1
    1038:	10893dc4 	addi	r2,r2,9463
    103c:	10fff90e 	bge	r2,r3,1024 <enterMonitor+0x1e4>
			exit(1);
    1040:	01000044 	movi	r4,1
    1044:	00028f00 	call	28f0 <exit>
		}
	}
	else {
		monitors[monitorID].timesTaken++;
    1048:	e13fff17 	ldw	r4,-4(fp)
    104c:	00c00074 	movhi	r3,1
    1050:	18ca4004 	addi	r3,r3,10496
    1054:	2004913a 	slli	r2,r4,4
    1058:	10c5883a 	add	r2,r2,r3
    105c:	10800017 	ldw	r2,0(r2)
    1060:	11400044 	addi	r5,r2,1
    1064:	00c00074 	movhi	r3,1
    1068:	18ca4004 	addi	r3,r3,10496
    106c:	2004913a 	slli	r2,r4,4
    1070:	10c5883a 	add	r2,r2,r3
    1074:	11400015 	stw	r5,0(r2)
		monitors[monitorID].takenBy = myID;
    1078:	e0bfff17 	ldw	r2,-4(fp)
    107c:	00c00074 	movhi	r3,1
    1080:	18ca4004 	addi	r3,r3,10496
    1084:	1004913a 	slli	r2,r2,4
    1088:	10c5883a 	add	r2,r2,r3
    108c:	10c00104 	addi	r3,r2,4
    1090:	e0bffe17 	ldw	r2,-8(fp)
    1094:	18800015 	stw	r2,0(r3)
	}

	/* push the new call onto the call stack */
	processes[myID].monitors[++processes[myID].currentMonitor] = monitorID;
    1098:	e1bffe17 	ldw	r6,-8(fp)
    109c:	e13ffe17 	ldw	r4,-8(fp)
    10a0:	00c00074 	movhi	r3,1
    10a4:	18ca6804 	addi	r3,r3,10656
    10a8:	20800f24 	muli	r2,r4,60
    10ac:	10c5883a 	add	r2,r2,r3
    10b0:	10800204 	addi	r2,r2,8
    10b4:	10800017 	ldw	r2,0(r2)
    10b8:	11400044 	addi	r5,r2,1
    10bc:	00c00074 	movhi	r3,1
    10c0:	18ca6804 	addi	r3,r3,10656
    10c4:	20800f24 	muli	r2,r4,60
    10c8:	10c5883a 	add	r2,r2,r3
    10cc:	10800204 	addi	r2,r2,8
    10d0:	11400015 	stw	r5,0(r2)
    10d4:	00c00074 	movhi	r3,1
    10d8:	18ca6804 	addi	r3,r3,10656
    10dc:	20800f24 	muli	r2,r4,60
    10e0:	10c5883a 	add	r2,r2,r3
    10e4:	10800204 	addi	r2,r2,8
    10e8:	10c00017 	ldw	r3,0(r2)
    10ec:	01000074 	movhi	r4,1
    10f0:	210a6804 	addi	r4,r4,10656
    10f4:	308003e4 	muli	r2,r6,15
    10f8:	10c5883a 	add	r2,r2,r3
    10fc:	1085883a 	add	r2,r2,r2
    1100:	1085883a 	add	r2,r2,r2
    1104:	1105883a 	add	r2,r2,r4
    1108:	10c00304 	addi	r3,r2,12
    110c:	e0bfff17 	ldw	r2,-4(fp)
    1110:	18800015 	stw	r2,0(r3)

	allowInterrupts();
    1114:	00027980 	call	2798 <allowInterrupts>
}
    1118:	e037883a 	mov	sp,fp
    111c:	dfc00217 	ldw	ra,8(sp)
    1120:	df000117 	ldw	fp,4(sp)
    1124:	dc000017 	ldw	r16,0(sp)
    1128:	dec00304 	addi	sp,sp,12
    112c:	f800283a 	ret

00001130 <exitMonitor>:

void exitMonitor() {
    1130:	defffa04 	addi	sp,sp,-24
    1134:	dfc00515 	stw	ra,20(sp)
    1138:	df000415 	stw	fp,16(sp)
    113c:	dc000315 	stw	r16,12(sp)
    1140:	df000304 	addi	fp,sp,12
	maskInterrupts();
    1144:	000278c0 	call	278c <maskInterrupts>

	int myID = head(&readyList);
    1148:	d1200004 	addi	r4,gp,-32768
    114c:	00007d80 	call	7d8 <head>
    1150:	e0bfff15 	stw	r2,-4(fp)
	int myMonitor = getCurrentMonitor(myID);
    1154:	e13fff17 	ldw	r4,-4(fp)
    1158:	0000dd40 	call	dd4 <getCurrentMonitor>
    115c:	e0bffe15 	stw	r2,-8(fp)

	if (myMonitor < 0) {
    1160:	e0bffe17 	ldw	r2,-8(fp)
    1164:	1004403a 	cmpge	r2,r2,zero
    1168:	10000e1e 	bne	r2,zero,11a4 <exitMonitor+0x74>
		ERRA("Process %d called exitMonitor outside of a monitor.", myID);
    116c:	00800074 	movhi	r2,1
    1170:	10835c04 	addi	r2,r2,3440
    1174:	10800017 	ldw	r2,0(r2)
    1178:	14000317 	ldw	r16,12(r2)
    117c:	d1200004 	addi	r4,gp,-32768
    1180:	00007d80 	call	7d8 <head>
    1184:	100d883a 	mov	r6,r2
    1188:	8009883a 	mov	r4,r16
    118c:	01400074 	movhi	r5,1
    1190:	297b5304 	addi	r5,r5,-4788
    1194:	e1ffff17 	ldw	r7,-4(fp)
    1198:	00029280 	call	2928 <fprintf>
		exit(1);
    119c:	01000044 	movi	r4,1
    11a0:	00028f00 	call	28f0 <exit>
	}

	/* go backwards in the stack of called monitors */
	processes[myID].currentMonitor--;
    11a4:	e17fff17 	ldw	r5,-4(fp)
    11a8:	00c00074 	movhi	r3,1
    11ac:	18ca6804 	addi	r3,r3,10656
    11b0:	28800f24 	muli	r2,r5,60
    11b4:	10c5883a 	add	r2,r2,r3
    11b8:	10800204 	addi	r2,r2,8
    11bc:	10800017 	ldw	r2,0(r2)
    11c0:	113fffc4 	addi	r4,r2,-1
    11c4:	00c00074 	movhi	r3,1
    11c8:	18ca6804 	addi	r3,r3,10656
    11cc:	28800f24 	muli	r2,r5,60
    11d0:	10c5883a 	add	r2,r2,r3
    11d4:	10800204 	addi	r2,r2,8
    11d8:	11000015 	stw	r4,0(r2)

	if (--monitors[myMonitor].timesTaken == 0) {
    11dc:	e13ffe17 	ldw	r4,-8(fp)
    11e0:	00c00074 	movhi	r3,1
    11e4:	18ca4004 	addi	r3,r3,10496
    11e8:	2004913a 	slli	r2,r4,4
    11ec:	10c5883a 	add	r2,r2,r3
    11f0:	10800017 	ldw	r2,0(r2)
    11f4:	117fffc4 	addi	r5,r2,-1
    11f8:	00c00074 	movhi	r3,1
    11fc:	18ca4004 	addi	r3,r3,10496
    1200:	2004913a 	slli	r2,r4,4
    1204:	10c5883a 	add	r2,r2,r3
    1208:	11400015 	stw	r5,0(r2)
    120c:	00c00074 	movhi	r3,1
    1210:	18ca4004 	addi	r3,r3,10496
    1214:	2004913a 	slli	r2,r4,4
    1218:	10c5883a 	add	r2,r2,r3
    121c:	10800017 	ldw	r2,0(r2)
    1220:	1004c03a 	cmpne	r2,r2,zero
    1224:	10002c1e 	bne	r2,zero,12d8 <exitMonitor+0x1a8>
		/* see if someone is waiting, and if yes, let the next process in */
		if (!isEmpty(&(monitors[myMonitor].entryList))) {
    1228:	e0bffe17 	ldw	r2,-8(fp)
    122c:	1004913a 	slli	r2,r2,4
    1230:	10c00204 	addi	r3,r2,8
    1234:	00800074 	movhi	r2,1
    1238:	108a4004 	addi	r2,r2,10496
    123c:	1889883a 	add	r4,r3,r2
    1240:	00008000 	call	800 <isEmpty>
    1244:	1004c03a 	cmpne	r2,r2,zero
    1248:	10001b1e 	bne	r2,zero,12b8 <exitMonitor+0x188>
			int pid = removeHead(&(monitors[myMonitor].entryList));
    124c:	e0bffe17 	ldw	r2,-8(fp)
    1250:	1004913a 	slli	r2,r2,4
    1254:	10c00204 	addi	r3,r2,8
    1258:	00800074 	movhi	r2,1
    125c:	108a4004 	addi	r2,r2,10496
    1260:	1889883a 	add	r4,r3,r2
    1264:	00006840 	call	684 <removeHead>
    1268:	e0bffd15 	stw	r2,-12(fp)
			addLast(&readyList, pid);
    126c:	d1200004 	addi	r4,gp,-32768
    1270:	e17ffd17 	ldw	r5,-12(fp)
    1274:	00005080 	call	508 <addLast>
			monitors[myMonitor].timesTaken = 1;
    1278:	e0bffe17 	ldw	r2,-8(fp)
    127c:	00c00074 	movhi	r3,1
    1280:	18ca4004 	addi	r3,r3,10496
    1284:	1004913a 	slli	r2,r2,4
    1288:	10c7883a 	add	r3,r2,r3
    128c:	00800044 	movi	r2,1
    1290:	18800015 	stw	r2,0(r3)
			monitors[myMonitor].takenBy = pid;
    1294:	e0bffe17 	ldw	r2,-8(fp)
    1298:	00c00074 	movhi	r3,1
    129c:	18ca4004 	addi	r3,r3,10496
    12a0:	1004913a 	slli	r2,r2,4
    12a4:	10c5883a 	add	r2,r2,r3
    12a8:	10c00104 	addi	r3,r2,4
    12ac:	e0bffd17 	ldw	r2,-12(fp)
    12b0:	18800015 	stw	r2,0(r3)
    12b4:	00000806 	br	12d8 <exitMonitor+0x1a8>
		} else {
			monitors[myMonitor].takenBy = -1;
    12b8:	e0bffe17 	ldw	r2,-8(fp)
    12bc:	00c00074 	movhi	r3,1
    12c0:	18ca4004 	addi	r3,r3,10496
    12c4:	1004913a 	slli	r2,r2,4
    12c8:	10c5883a 	add	r2,r2,r3
    12cc:	10c00104 	addi	r3,r2,4
    12d0:	00bfffc4 	movi	r2,-1
    12d4:	18800015 	stw	r2,0(r3)
		}
	}

	allowInterrupts();
    12d8:	00027980 	call	2798 <allowInterrupts>
}
    12dc:	e037883a 	mov	sp,fp
    12e0:	dfc00217 	ldw	ra,8(sp)
    12e4:	df000117 	ldw	fp,4(sp)
    12e8:	dc000017 	ldw	r16,0(sp)
    12ec:	dec00304 	addi	sp,sp,12
    12f0:	f800283a 	ret

000012f4 <notify>:

void notify() {
    12f4:	defffa04 	addi	sp,sp,-24
    12f8:	dfc00515 	stw	ra,20(sp)
    12fc:	df000415 	stw	fp,16(sp)
    1300:	dc000315 	stw	r16,12(sp)
    1304:	df000304 	addi	fp,sp,12
	maskInterrupts();
    1308:	000278c0 	call	278c <maskInterrupts>

	printf("notify: readylist.size = %d", size(&readyList));
    130c:	d1200004 	addi	r4,gp,-32768
    1310:	00006200 	call	620 <size>
    1314:	100b883a 	mov	r5,r2
    1318:	01000074 	movhi	r4,1
    131c:	213b6404 	addi	r4,r4,-4720
    1320:	00030f00 	call	30f0 <printf>

	int myID = head(&readyList);
    1324:	d1200004 	addi	r4,gp,-32768
    1328:	00007d80 	call	7d8 <head>
    132c:	e0bfff15 	stw	r2,-4(fp)
	int myMonitor = getCurrentMonitor(myID);
    1330:	e13fff17 	ldw	r4,-4(fp)
    1334:	0000dd40 	call	dd4 <getCurrentMonitor>
    1338:	e0bffe15 	stw	r2,-8(fp)

	if (myMonitor < 0) {
    133c:	e0bffe17 	ldw	r2,-8(fp)
    1340:	1004403a 	cmpge	r2,r2,zero
    1344:	10000e1e 	bne	r2,zero,1380 <notify+0x8c>
		ERRA("Process %d called notify outside of a monitor.", myID);
    1348:	00800074 	movhi	r2,1
    134c:	10835c04 	addi	r2,r2,3440
    1350:	10800017 	ldw	r2,0(r2)
    1354:	14000317 	ldw	r16,12(r2)
    1358:	d1200004 	addi	r4,gp,-32768
    135c:	00007d80 	call	7d8 <head>
    1360:	100d883a 	mov	r6,r2
    1364:	8009883a 	mov	r4,r16
    1368:	01400074 	movhi	r5,1
    136c:	297b6b04 	addi	r5,r5,-4692
    1370:	e1ffff17 	ldw	r7,-4(fp)
    1374:	00029280 	call	2928 <fprintf>
		exit(1);
    1378:	01000044 	movi	r4,1
    137c:	00028f00 	call	28f0 <exit>
	}

	if (!isEmpty(&(monitors[myMonitor].waitingList))) {
    1380:	e0bffe17 	ldw	r2,-8(fp)
    1384:	1004913a 	slli	r2,r2,4
    1388:	10c00304 	addi	r3,r2,12
    138c:	00800074 	movhi	r2,1
    1390:	108a4004 	addi	r2,r2,10496
    1394:	1889883a 	add	r4,r3,r2
    1398:	00008000 	call	800 <isEmpty>
    139c:	1004c03a 	cmpne	r2,r2,zero
    13a0:	1000171e 	bne	r2,zero,1400 <notify+0x10c>
		int pid = removeHead(&monitors[myMonitor].waitingList);
    13a4:	e0bffe17 	ldw	r2,-8(fp)
    13a8:	1004913a 	slli	r2,r2,4
    13ac:	10c00304 	addi	r3,r2,12
    13b0:	00800074 	movhi	r2,1
    13b4:	108a4004 	addi	r2,r2,10496
    13b8:	1889883a 	add	r4,r3,r2
    13bc:	00006840 	call	684 <removeHead>
    13c0:	e0bffd15 	stw	r2,-12(fp)
		timedWaiting[pid] = 0;
    13c4:	e0bffd17 	ldw	r2,-12(fp)
    13c8:	00c00074 	movhi	r3,1
    13cc:	18ca2c04 	addi	r3,r3,10416
    13d0:	1085883a 	add	r2,r2,r2
    13d4:	1085883a 	add	r2,r2,r2
    13d8:	10c5883a 	add	r2,r2,r3
    13dc:	10000015 	stw	zero,0(r2)
		addLast(&monitors[myMonitor].entryList, pid);
    13e0:	e0bffe17 	ldw	r2,-8(fp)
    13e4:	1004913a 	slli	r2,r2,4
    13e8:	10c00204 	addi	r3,r2,8
    13ec:	00800074 	movhi	r2,1
    13f0:	108a4004 	addi	r2,r2,10496
    13f4:	1889883a 	add	r4,r3,r2
    13f8:	e17ffd17 	ldw	r5,-12(fp)
    13fc:	00005080 	call	508 <addLast>
	}

	allowInterrupts();
    1400:	00027980 	call	2798 <allowInterrupts>
}
    1404:	e037883a 	mov	sp,fp
    1408:	dfc00217 	ldw	ra,8(sp)
    140c:	df000117 	ldw	fp,4(sp)
    1410:	dc000017 	ldw	r16,0(sp)
    1414:	dec00304 	addi	sp,sp,12
    1418:	f800283a 	ret

0000141c <notifyAll>:

void notifyAll() {
    141c:	defffa04 	addi	sp,sp,-24
    1420:	dfc00515 	stw	ra,20(sp)
    1424:	df000415 	stw	fp,16(sp)
    1428:	dc000315 	stw	r16,12(sp)
    142c:	df000304 	addi	fp,sp,12
	maskInterrupts();
    1430:	000278c0 	call	278c <maskInterrupts>

	int myID = head(&readyList);
    1434:	d1200004 	addi	r4,gp,-32768
    1438:	00007d80 	call	7d8 <head>
    143c:	e0bfff15 	stw	r2,-4(fp)
	int myMonitor = getCurrentMonitor(myID);
    1440:	e13fff17 	ldw	r4,-4(fp)
    1444:	0000dd40 	call	dd4 <getCurrentMonitor>
    1448:	e0bffe15 	stw	r2,-8(fp)

	if (myMonitor < 0) {
    144c:	e0bffe17 	ldw	r2,-8(fp)
    1450:	1004403a 	cmpge	r2,r2,zero
    1454:	1000251e 	bne	r2,zero,14ec <notifyAll+0xd0>
		ERRA("Process %d called notify outside of a monitor.", myID);
    1458:	00800074 	movhi	r2,1
    145c:	10835c04 	addi	r2,r2,3440
    1460:	10800017 	ldw	r2,0(r2)
    1464:	14000317 	ldw	r16,12(r2)
    1468:	d1200004 	addi	r4,gp,-32768
    146c:	00007d80 	call	7d8 <head>
    1470:	100d883a 	mov	r6,r2
    1474:	8009883a 	mov	r4,r16
    1478:	01400074 	movhi	r5,1
    147c:	297b6b04 	addi	r5,r5,-4692
    1480:	e1ffff17 	ldw	r7,-4(fp)
    1484:	00029280 	call	2928 <fprintf>
		exit(1);
    1488:	01000044 	movi	r4,1
    148c:	00028f00 	call	28f0 <exit>
	}

	while (!isEmpty(&(monitors[myMonitor].waitingList))) {
		int pid = removeHead(&monitors[myMonitor].waitingList);
    1490:	e0bffe17 	ldw	r2,-8(fp)
    1494:	1004913a 	slli	r2,r2,4
    1498:	10c00304 	addi	r3,r2,12
    149c:	00800074 	movhi	r2,1
    14a0:	108a4004 	addi	r2,r2,10496
    14a4:	1889883a 	add	r4,r3,r2
    14a8:	00006840 	call	684 <removeHead>
    14ac:	e0bffd15 	stw	r2,-12(fp)
		timedWaiting[pid] = 0;
    14b0:	e0bffd17 	ldw	r2,-12(fp)
    14b4:	00c00074 	movhi	r3,1
    14b8:	18ca2c04 	addi	r3,r3,10416
    14bc:	1085883a 	add	r2,r2,r2
    14c0:	1085883a 	add	r2,r2,r2
    14c4:	10c5883a 	add	r2,r2,r3
    14c8:	10000015 	stw	zero,0(r2)
		addLast(&monitors[myMonitor].entryList, pid);
    14cc:	e0bffe17 	ldw	r2,-8(fp)
    14d0:	1004913a 	slli	r2,r2,4
    14d4:	10c00204 	addi	r3,r2,8
    14d8:	00800074 	movhi	r2,1
    14dc:	108a4004 	addi	r2,r2,10496
    14e0:	1889883a 	add	r4,r3,r2
    14e4:	e17ffd17 	ldw	r5,-12(fp)
    14e8:	00005080 	call	508 <addLast>
	if (myMonitor < 0) {
		ERRA("Process %d called notify outside of a monitor.", myID);
		exit(1);
	}

	while (!isEmpty(&(monitors[myMonitor].waitingList))) {
    14ec:	e0bffe17 	ldw	r2,-8(fp)
    14f0:	1004913a 	slli	r2,r2,4
    14f4:	10c00304 	addi	r3,r2,12
    14f8:	00800074 	movhi	r2,1
    14fc:	108a4004 	addi	r2,r2,10496
    1500:	1889883a 	add	r4,r3,r2
    1504:	00008000 	call	800 <isEmpty>
    1508:	1005003a 	cmpeq	r2,r2,zero
    150c:	103fe01e 	bne	r2,zero,1490 <notifyAll+0x74>
		int pid = removeHead(&monitors[myMonitor].waitingList);
		timedWaiting[pid] = 0;
		addLast(&monitors[myMonitor].entryList, pid);
	}
	allowInterrupts();
    1510:	00027980 	call	2798 <allowInterrupts>
}
    1514:	e037883a 	mov	sp,fp
    1518:	dfc00217 	ldw	ra,8(sp)
    151c:	df000117 	ldw	fp,4(sp)
    1520:	dc000017 	ldw	r16,0(sp)
    1524:	dec00304 	addi	sp,sp,12
    1528:	f800283a 	ret

0000152c <idle_code>:


void idle_code() {
    152c:	defffe04 	addi	sp,sp,-8
    1530:	df000115 	stw	fp,4(sp)
    1534:	df000104 	addi	fp,sp,4
	unsigned int the_answer = 42;
    1538:	00800a84 	movi	r2,42
    153c:	e0bfff15 	stw	r2,-4(fp)
	while(the_answer == 42) {
    1540:	e0bfff17 	ldw	r2,-4(fp)
    1544:	10800aa0 	cmpeqi	r2,r2,42
    1548:	103ffd1e 	bne	r2,zero,1540 <idle_code+0x14>
		// Everything is fine
	}
}
    154c:	e037883a 	mov	sp,fp
    1550:	df000017 	ldw	fp,0(sp)
    1554:	dec00104 	addi	sp,sp,4
    1558:	f800283a 	ret

0000155c <createIdle>:
int createIdle() {
    155c:	defffd04 	addi	sp,sp,-12
    1560:	dfc00215 	stw	ra,8(sp)
    1564:	df000115 	stw	fp,4(sp)
    1568:	df000104 	addi	fp,sp,4
    int result = createSpecialProcess(&idle_code);
    156c:	01000034 	movhi	r4,0
    1570:	21054b04 	addi	r4,r4,5420
    1574:	00009fc0 	call	9fc <createSpecialProcess>
    1578:	e0bfff15 	stw	r2,-4(fp)
    return result;
    157c:	e0bfff17 	ldw	r2,-4(fp)
}
    1580:	e037883a 	mov	sp,fp
    1584:	dfc00117 	ldw	ra,4(sp)
    1588:	df000017 	ldw	fp,0(sp)
    158c:	dec00204 	addi	sp,sp,8
    1590:	f800283a 	ret

00001594 <scheduler>:

// Clock process
void scheduler() {
    1594:	defff504 	addi	sp,sp,-44
    1598:	dfc00a15 	stw	ra,40(sp)
    159c:	df000915 	stw	fp,36(sp)
    15a0:	df000904 	addi	fp,sp,36
	maskInterrupts();
    15a4:	000278c0 	call	278c <maskInterrupts>
	int i;

	// Enable clock interrupts
	init_clock();
    15a8:	00004b80 	call	4b8 <init_clock>
	init_button();
    15ac:	00004000 	call	400 <init_button>
	unsigned int time_since_last_commutation = 0;
    15b0:	e03ffd15 	stw	zero,-12(fp)
	while(1) {
		int next_pid = !isEmpty(&readyList) ? head(&readyList) : idle_pid;
    15b4:	d1200004 	addi	r4,gp,-32768
    15b8:	00008000 	call	800 <isEmpty>
    15bc:	1004c03a 	cmpne	r2,r2,zero
    15c0:	1000041e 	bne	r2,zero,15d4 <scheduler+0x40>
    15c4:	d1200004 	addi	r4,gp,-32768
    15c8:	00007d80 	call	7d8 <head>
    15cc:	e0bfff15 	stw	r2,-4(fp)
    15d0:	00000206 	br	15dc <scheduler+0x48>
    15d4:	d0a6bf17 	ldw	r2,-25860(gp)
    15d8:	e0bfff15 	stw	r2,-4(fp)
    15dc:	e0bfff17 	ldw	r2,-4(fp)
    15e0:	e0bffc15 	stw	r2,-16(fp)
		iotransfer(processes[next_pid].p, 0);
    15e4:	e0bffc17 	ldw	r2,-16(fp)
    15e8:	00c00074 	movhi	r3,1
    15ec:	18ca6804 	addi	r3,r3,10656
    15f0:	10800f24 	muli	r2,r2,60
    15f4:	10c5883a 	add	r2,r2,r3
    15f8:	10800104 	addi	r2,r2,4
    15fc:	11000017 	ldw	r4,0(r2)
    1600:	000b883a 	mov	r5,zero
    1604:	000263c0 	call	263c <iotransfer>

		// Rising edge has happened!
		time_since_last_commutation += CLOCK_PERIOD;
    1608:	e0bffd17 	ldw	r2,-12(fp)
    160c:	10800044 	addi	r2,r2,1
    1610:	e0bffd15 	stw	r2,-12(fp)

		/* **********/
		/* CHECK 1  */
		/* **********/
		// Should we switch process? (scheduling part)
		if(time_since_last_commutation > TIME_SLICING_FREQUENCY) {
    1614:	e0bffd17 	ldw	r2,-12(fp)
    1618:	10800570 	cmpltui	r2,r2,21
    161c:	1000071e 	bne	r2,zero,163c <scheduler+0xa8>
			int current = removeHead(&readyList);
    1620:	d1200004 	addi	r4,gp,-32768
    1624:	00006840 	call	684 <removeHead>
    1628:	e0bffa15 	stw	r2,-24(fp)
			addLast(&readyList, current);
    162c:	d1200004 	addi	r4,gp,-32768
    1630:	e17ffa17 	ldw	r5,-24(fp)
    1634:	00005080 	call	508 <addLast>
			time_since_last_commutation = 0;
    1638:	e03ffd15 	stw	zero,-12(fp)
		/* CHECK 2  */
		/* **********/
		/* All the processes that have called timedWait and have not been notified / kicked out
		 * are in the timedWaiting list.
		 * We check one by one that none of them has timed out */
		int dbg_proc_waiting = 0;
    163c:	e03ffb15 	stw	zero,-20(fp)
		for(i = 0; i < MAX_PROC ; ++i) { // considering MAX_PROC is small, not a big performance deal
    1640:	e03ffe15 	stw	zero,-8(fp)
    1644:	00006606 	br	17e0 <scheduler+0x24c>
			if (timedWaiting[i]) {
    1648:	e0bffe17 	ldw	r2,-8(fp)
    164c:	00c00074 	movhi	r3,1
    1650:	18ca2c04 	addi	r3,r3,10416
    1654:	1085883a 	add	r2,r2,r2
    1658:	1085883a 	add	r2,r2,r2
    165c:	10c5883a 	add	r2,r2,r3
    1660:	10800017 	ldw	r2,0(r2)
    1664:	1005003a 	cmpeq	r2,r2,zero
    1668:	10005a1e 	bne	r2,zero,17d4 <scheduler+0x240>
				dbg_proc_waiting++;
    166c:	e0bffb17 	ldw	r2,-20(fp)
    1670:	10800044 	addi	r2,r2,1
    1674:	e0bffb15 	stw	r2,-20(fp)
				int* timeout = &(processes[i].timeout);
    1678:	e0bffe17 	ldw	r2,-8(fp)
    167c:	10800f24 	muli	r2,r2,60
    1680:	10c00e04 	addi	r3,r2,56
    1684:	00800074 	movhi	r2,1
    1688:	108a6804 	addi	r2,r2,10656
    168c:	10c5883a 	add	r2,r2,r3
    1690:	e0bff915 	stw	r2,-28(fp)
				if(*timeout <= 0) {
    1694:	e0bff917 	ldw	r2,-28(fp)
    1698:	10800017 	ldw	r2,0(r2)
    169c:	10800050 	cmplti	r2,r2,1
    16a0:	10004c1e 	bne	r2,zero,17d4 <scheduler+0x240>
					// Here, the process has timed out but was not notified
					continue;
				}

				*timeout -= CLOCK_PERIOD;
    16a4:	e0bff917 	ldw	r2,-28(fp)
    16a8:	10800017 	ldw	r2,0(r2)
    16ac:	10ffffc4 	addi	r3,r2,-1
    16b0:	e0bff917 	ldw	r2,-28(fp)
    16b4:	10c00015 	stw	r3,0(r2)


				if(*timeout <= 0) {
    16b8:	e0bff917 	ldw	r2,-28(fp)
    16bc:	10800017 	ldw	r2,0(r2)
    16c0:	10800048 	cmpgei	r2,r2,1
    16c4:	1000431e 	bne	r2,zero,17d4 <scheduler+0x240>

					/* If it is in a monitor's waiting list, remove from that list */
					int currMon = getCurrentMonitor(i);
    16c8:	e13ffe17 	ldw	r4,-8(fp)
    16cc:	0000dd40 	call	dd4 <getCurrentMonitor>
    16d0:	e0bff815 	stw	r2,-32(fp)
					if (currMon >= 0 && monitors[currMon].takenBy != i) {
    16d4:	e0bff817 	ldw	r2,-32(fp)
    16d8:	1004803a 	cmplt	r2,r2,zero
    16dc:	10003a1e 	bne	r2,zero,17c8 <scheduler+0x234>
    16e0:	e0bff817 	ldw	r2,-32(fp)
    16e4:	00c00074 	movhi	r3,1
    16e8:	18ca4004 	addi	r3,r3,10496
    16ec:	1004913a 	slli	r2,r2,4
    16f0:	10c5883a 	add	r2,r2,r3
    16f4:	10800104 	addi	r2,r2,4
    16f8:	10c00017 	ldw	r3,0(r2)
    16fc:	e0bffe17 	ldw	r2,-8(fp)
    1700:	18803126 	beq	r3,r2,17c8 <scheduler+0x234>
						printf("removed from monitor");
    1704:	01000074 	movhi	r4,1
    1708:	213b7a04 	addi	r4,r4,-4632
    170c:	00030f00 	call	30f0 <printf>

						int* list = &(monitors[currMon].waitingList);
    1710:	e0bff817 	ldw	r2,-32(fp)
    1714:	1004913a 	slli	r2,r2,4
    1718:	10c00304 	addi	r3,r2,12
    171c:	00800074 	movhi	r2,1
    1720:	108a4004 	addi	r2,r2,10496
    1724:	10c5883a 	add	r2,r2,r3
    1728:	e0bff715 	stw	r2,-36(fp)
						removeFromList(list, i);
    172c:	e13ff717 	ldw	r4,-36(fp)
    1730:	e17ffe17 	ldw	r5,-8(fp)
    1734:	00007240 	call	724 <removeFromList>
						if (monitors[currMon].timesTaken > 0) {
    1738:	e0bff817 	ldw	r2,-32(fp)
    173c:	00c00074 	movhi	r3,1
    1740:	18ca4004 	addi	r3,r3,10496
    1744:	1004913a 	slli	r2,r2,4
    1748:	10c5883a 	add	r2,r2,r3
    174c:	10800017 	ldw	r2,0(r2)
    1750:	10800050 	cmplti	r2,r2,1
    1754:	1000091e 	bne	r2,zero,177c <scheduler+0x1e8>
							addLast(&monitors[currMon].entryList, i);
    1758:	e0bff817 	ldw	r2,-32(fp)
    175c:	1004913a 	slli	r2,r2,4
    1760:	10c00204 	addi	r3,r2,8
    1764:	00800074 	movhi	r2,1
    1768:	108a4004 	addi	r2,r2,10496
    176c:	1889883a 	add	r4,r3,r2
    1770:	e17ffe17 	ldw	r5,-8(fp)
    1774:	00005080 	call	508 <addLast>
    1778:	00001606 	br	17d4 <scheduler+0x240>
						} else {
							monitors[currMon].timesTaken = 1;
    177c:	e0bff817 	ldw	r2,-32(fp)
    1780:	00c00074 	movhi	r3,1
    1784:	18ca4004 	addi	r3,r3,10496
    1788:	1004913a 	slli	r2,r2,4
    178c:	10c7883a 	add	r3,r2,r3
    1790:	00800044 	movi	r2,1
    1794:	18800015 	stw	r2,0(r3)
							monitors[currMon].takenBy = i;
    1798:	e0bff817 	ldw	r2,-32(fp)
    179c:	00c00074 	movhi	r3,1
    17a0:	18ca4004 	addi	r3,r3,10496
    17a4:	1004913a 	slli	r2,r2,4
    17a8:	10c5883a 	add	r2,r2,r3
    17ac:	10c00104 	addi	r3,r2,4
    17b0:	e0bffe17 	ldw	r2,-8(fp)
    17b4:	18800015 	stw	r2,0(r3)
							addFirst(&readyList, i);
    17b8:	d1200004 	addi	r4,gp,-32768
    17bc:	e17ffe17 	ldw	r5,-8(fp)
    17c0:	00005d00 	call	5d0 <addFirst>

				if(*timeout <= 0) {

					/* If it is in a monitor's waiting list, remove from that list */
					int currMon = getCurrentMonitor(i);
					if (currMon >= 0 && monitors[currMon].takenBy != i) {
    17c4:	00000306 	br	17d4 <scheduler+0x240>
							monitors[currMon].timesTaken = 1;
							monitors[currMon].takenBy = i;
							addFirst(&readyList, i);
						}
					} else {
						addFirst(&readyList, i);
    17c8:	d1200004 	addi	r4,gp,-32768
    17cc:	e17ffe17 	ldw	r5,-8(fp)
    17d0:	00005d00 	call	5d0 <addFirst>
		/* **********/
		/* All the processes that have called timedWait and have not been notified / kicked out
		 * are in the timedWaiting list.
		 * We check one by one that none of them has timed out */
		int dbg_proc_waiting = 0;
		for(i = 0; i < MAX_PROC ; ++i) { // considering MAX_PROC is small, not a big performance deal
    17d4:	e0bffe17 	ldw	r2,-8(fp)
    17d8:	10800044 	addi	r2,r2,1
    17dc:	e0bffe15 	stw	r2,-8(fp)
    17e0:	e0bffe17 	ldw	r2,-8(fp)
    17e4:	10800290 	cmplti	r2,r2,10
    17e8:	103f971e 	bne	r2,zero,1648 <scheduler+0xb4>
				}

			}
			
		}
	}
    17ec:	003f7106 	br	15b4 <scheduler+0x20>

000017f0 <createScheduler>:
	allowInterrupts();
}
int createScheduler() {
    17f0:	defffd04 	addi	sp,sp,-12
    17f4:	dfc00215 	stw	ra,8(sp)
    17f8:	df000115 	stw	fp,4(sp)
    17fc:	df000104 	addi	fp,sp,4
	int result = createSpecialProcess(&scheduler);
    1800:	01000034 	movhi	r4,0
    1804:	21056504 	addi	r4,r4,5524
    1808:	00009fc0 	call	9fc <createSpecialProcess>
    180c:	e0bfff15 	stw	r2,-4(fp)
	return result;
    1810:	e0bfff17 	ldw	r2,-4(fp)
}
    1814:	e037883a 	mov	sp,fp
    1818:	dfc00117 	ldw	ra,4(sp)
    181c:	df000017 	ldw	fp,0(sp)
    1820:	dec00204 	addi	sp,sp,8
    1824:	f800283a 	ret

00001828 <waitInterrupt>:

void waitInterrupt(int peripherique) {
    1828:	defff804 	addi	sp,sp,-32
    182c:	dfc00715 	stw	ra,28(sp)
    1830:	df000615 	stw	fp,24(sp)
    1834:	dc000515 	stw	r16,20(sp)
    1838:	df000504 	addi	fp,sp,20
    183c:	e13ffe15 	stw	r4,-8(fp)
	maskInterrupts();
    1840:	000278c0 	call	278c <maskInterrupts>

	if(peripherique == 0) {
    1844:	e0bffe17 	ldw	r2,-8(fp)
    1848:	1004c03a 	cmpne	r2,r2,zero
    184c:	1000171e 	bne	r2,zero,18ac <waitInterrupt+0x84>
		ERR("Error, you are not allowed to wait clock interrupts ");
    1850:	00800074 	movhi	r2,1
    1854:	10835c04 	addi	r2,r2,3440
    1858:	10800017 	ldw	r2,0(r2)
    185c:	14000317 	ldw	r16,12(r2)
    1860:	d1200004 	addi	r4,gp,-32768
    1864:	00007d80 	call	7d8 <head>
    1868:	100d883a 	mov	r6,r2
    186c:	8009883a 	mov	r4,r16
    1870:	01400074 	movhi	r5,1
    1874:	297b8004 	addi	r5,r5,-4608
    1878:	000f883a 	mov	r7,zero
    187c:	00029280 	call	2928 <fprintf>
    1880:	e03ffb15 	stw	zero,-20(fp)
    1884:	00000306 	br	1894 <waitInterrupt+0x6c>
    1888:	e0bffb17 	ldw	r2,-20(fp)
    188c:	10800044 	addi	r2,r2,1
    1890:	e0bffb15 	stw	r2,-20(fp)
    1894:	e0fffb17 	ldw	r3,-20(fp)
    1898:	00800074 	movhi	r2,1
    189c:	10893dc4 	addi	r2,r2,9463
    18a0:	10fff90e 	bge	r2,r3,1888 <waitInterrupt+0x60>
		exit(1);
    18a4:	01000044 	movi	r4,1
    18a8:	00028f00 	call	28f0 <exit>
	}
	int caller_pid = removeHead(&readyList);
    18ac:	d1200004 	addi	r4,gp,-32768
    18b0:	00006840 	call	684 <removeHead>
    18b4:	e0bffd15 	stw	r2,-12(fp)

	int next_pid = isEmpty(&readyList) ? idle_pid : head(&readyList);
    18b8:	d1200004 	addi	r4,gp,-32768
    18bc:	00008000 	call	800 <isEmpty>
    18c0:	1004c03a 	cmpne	r2,r2,zero
    18c4:	1000041e 	bne	r2,zero,18d8 <waitInterrupt+0xb0>
    18c8:	d1200004 	addi	r4,gp,-32768
    18cc:	00007d80 	call	7d8 <head>
    18d0:	e0bfff15 	stw	r2,-4(fp)
    18d4:	00000206 	br	18e0 <waitInterrupt+0xb8>
    18d8:	d0a6bf17 	ldw	r2,-25860(gp)
    18dc:	e0bfff15 	stw	r2,-4(fp)
    18e0:	e0bfff17 	ldw	r2,-4(fp)
    18e4:	e0bffc15 	stw	r2,-16(fp)

	iotransfer(processes[next_pid].p, peripherique);
    18e8:	e0bffc17 	ldw	r2,-16(fp)
    18ec:	00c00074 	movhi	r3,1
    18f0:	18ca6804 	addi	r3,r3,10656
    18f4:	10800f24 	muli	r2,r2,60
    18f8:	10c5883a 	add	r2,r2,r3
    18fc:	10800104 	addi	r2,r2,4
    1900:	11000017 	ldw	r4,0(r2)
    1904:	e17ffe17 	ldw	r5,-8(fp)
    1908:	000263c0 	call	263c <iotransfer>

	// When we get back here, an interruption has happened :
	// we regive the CPU to the caller
	addFirst(&readyList, caller_pid);
    190c:	d1200004 	addi	r4,gp,-32768
    1910:	e17ffd17 	ldw	r5,-12(fp)
    1914:	00005d00 	call	5d0 <addFirst>

	allowInterrupts();
    1918:	00027980 	call	2798 <allowInterrupts>
}
    191c:	e037883a 	mov	sp,fp
    1920:	dfc00217 	ldw	ra,8(sp)
    1924:	df000117 	ldw	fp,4(sp)
    1928:	dc000017 	ldw	r16,0(sp)
    192c:	dec00304 	addi	sp,sp,12
    1930:	f800283a 	ret

00001934 <wait>:




void wait() {
    1934:	defffe04 	addi	sp,sp,-8
    1938:	dfc00115 	stw	ra,4(sp)
    193c:	df000015 	stw	fp,0(sp)
    1940:	d839883a 	mov	fp,sp
	maskInterrupts();
    1944:	000278c0 	call	278c <maskInterrupts>

	_wait();
    1948:	00019640 	call	1964 <_wait>

	allowInterrupts();
    194c:	00027980 	call	2798 <allowInterrupts>
}
    1950:	e037883a 	mov	sp,fp
    1954:	dfc00117 	ldw	ra,4(sp)
    1958:	df000017 	ldw	fp,0(sp)
    195c:	dec00204 	addi	sp,sp,8
    1960:	f800283a 	ret

00001964 <_wait>:

void _wait() {
    1964:	defff804 	addi	sp,sp,-32
    1968:	dfc00715 	stw	ra,28(sp)
    196c:	df000615 	stw	fp,24(sp)
    1970:	dc000515 	stw	r16,20(sp)
    1974:	df000504 	addi	fp,sp,20
	int myID = head(&readyList);
    1978:	d1200004 	addi	r4,gp,-32768
    197c:	00007d80 	call	7d8 <head>
    1980:	e0bfff15 	stw	r2,-4(fp)
	int myMonitor = getCurrentMonitor(myID);
    1984:	e13fff17 	ldw	r4,-4(fp)
    1988:	0000dd40 	call	dd4 <getCurrentMonitor>
    198c:	e0bffe15 	stw	r2,-8(fp)
	int myTaken;

	if (myMonitor < 0) {
    1990:	e0bffe17 	ldw	r2,-8(fp)
    1994:	1004403a 	cmpge	r2,r2,zero
    1998:	10000e1e 	bne	r2,zero,19d4 <_wait+0x70>
		ERRA("Process %d called wait outside of a monitor.", myID);
    199c:	00800074 	movhi	r2,1
    19a0:	10835c04 	addi	r2,r2,3440
    19a4:	10800017 	ldw	r2,0(r2)
    19a8:	14000317 	ldw	r16,12(r2)
    19ac:	d1200004 	addi	r4,gp,-32768
    19b0:	00007d80 	call	7d8 <head>
    19b4:	100d883a 	mov	r6,r2
    19b8:	8009883a 	mov	r4,r16
    19bc:	01400074 	movhi	r5,1
    19c0:	297b9104 	addi	r5,r5,-4540
    19c4:	e1ffff17 	ldw	r7,-4(fp)
    19c8:	00029280 	call	2928 <fprintf>
		exit(1);
    19cc:	01000044 	movi	r4,1
    19d0:	00028f00 	call	28f0 <exit>
	}

	removeHead(&readyList);
    19d4:	d1200004 	addi	r4,gp,-32768
    19d8:	00006840 	call	684 <removeHead>
	addLast(&monitors[myMonitor].waitingList, myID);
    19dc:	e0bffe17 	ldw	r2,-8(fp)
    19e0:	1004913a 	slli	r2,r2,4
    19e4:	10c00304 	addi	r3,r2,12
    19e8:	00800074 	movhi	r2,1
    19ec:	108a4004 	addi	r2,r2,10496
    19f0:	1889883a 	add	r4,r3,r2
    19f4:	e17fff17 	ldw	r5,-4(fp)
    19f8:	00005080 	call	508 <addLast>

	/* save timesTaken so we can restore it later */
	myTaken = monitors[myMonitor].timesTaken;
    19fc:	e0bffe17 	ldw	r2,-8(fp)
    1a00:	00c00074 	movhi	r3,1
    1a04:	18ca4004 	addi	r3,r3,10496
    1a08:	1004913a 	slli	r2,r2,4
    1a0c:	10c5883a 	add	r2,r2,r3
    1a10:	10800017 	ldw	r2,0(r2)
    1a14:	e0bffd15 	stw	r2,-12(fp)

	/* let the next process in, if any */
	if (!isEmpty(&(monitors[myMonitor].entryList))) {
    1a18:	e0bffe17 	ldw	r2,-8(fp)
    1a1c:	1004913a 	slli	r2,r2,4
    1a20:	10c00204 	addi	r3,r2,8
    1a24:	00800074 	movhi	r2,1
    1a28:	108a4004 	addi	r2,r2,10496
    1a2c:	1889883a 	add	r4,r3,r2
    1a30:	00008000 	call	800 <isEmpty>
    1a34:	1004c03a 	cmpne	r2,r2,zero
    1a38:	10001b1e 	bne	r2,zero,1aa8 <_wait+0x144>
		int pid = removeHead(&(monitors[myMonitor].entryList));
    1a3c:	e0bffe17 	ldw	r2,-8(fp)
    1a40:	1004913a 	slli	r2,r2,4
    1a44:	10c00204 	addi	r3,r2,8
    1a48:	00800074 	movhi	r2,1
    1a4c:	108a4004 	addi	r2,r2,10496
    1a50:	1889883a 	add	r4,r3,r2
    1a54:	00006840 	call	684 <removeHead>
    1a58:	e0bffc15 	stw	r2,-16(fp)
		addLast(&readyList, pid);
    1a5c:	d1200004 	addi	r4,gp,-32768
    1a60:	e17ffc17 	ldw	r5,-16(fp)
    1a64:	00005080 	call	508 <addLast>
		monitors[myMonitor].timesTaken = 1;
    1a68:	e0bffe17 	ldw	r2,-8(fp)
    1a6c:	00c00074 	movhi	r3,1
    1a70:	18ca4004 	addi	r3,r3,10496
    1a74:	1004913a 	slli	r2,r2,4
    1a78:	10c7883a 	add	r3,r2,r3
    1a7c:	00800044 	movi	r2,1
    1a80:	18800015 	stw	r2,0(r3)
		monitors[myMonitor].takenBy = pid;
    1a84:	e0bffe17 	ldw	r2,-8(fp)
    1a88:	00c00074 	movhi	r3,1
    1a8c:	18ca4004 	addi	r3,r3,10496
    1a90:	1004913a 	slli	r2,r2,4
    1a94:	10c5883a 	add	r2,r2,r3
    1a98:	10c00104 	addi	r3,r2,4
    1a9c:	e0bffc17 	ldw	r2,-16(fp)
    1aa0:	18800015 	stw	r2,0(r3)
    1aa4:	00000e06 	br	1ae0 <_wait+0x17c>
	} else {
		monitors[myMonitor].timesTaken = 0;
    1aa8:	e0bffe17 	ldw	r2,-8(fp)
    1aac:	00c00074 	movhi	r3,1
    1ab0:	18ca4004 	addi	r3,r3,10496
    1ab4:	1004913a 	slli	r2,r2,4
    1ab8:	10c5883a 	add	r2,r2,r3
    1abc:	10000015 	stw	zero,0(r2)
		monitors[myMonitor].takenBy = -1;
    1ac0:	e0bffe17 	ldw	r2,-8(fp)
    1ac4:	00c00074 	movhi	r3,1
    1ac8:	18ca4004 	addi	r3,r3,10496
    1acc:	1004913a 	slli	r2,r2,4
    1ad0:	10c5883a 	add	r2,r2,r3
    1ad4:	10c00104 	addi	r3,r2,4
    1ad8:	00bfffc4 	movi	r2,-1
    1adc:	18800015 	stw	r2,0(r3)
	}
	checkAndTransfer();
    1ae0:	0000bc80 	call	bc8 <checkAndTransfer>

	/* I am woken up by exitMonitor -- check if the monitor state is consistent */
	if ((monitors[myMonitor].timesTaken != 1) || (monitors[myMonitor].takenBy != myID)) {
    1ae4:	e0bffe17 	ldw	r2,-8(fp)
    1ae8:	00c00074 	movhi	r3,1
    1aec:	18ca4004 	addi	r3,r3,10496
    1af0:	1004913a 	slli	r2,r2,4
    1af4:	10c5883a 	add	r2,r2,r3
    1af8:	10800017 	ldw	r2,0(r2)
    1afc:	10800058 	cmpnei	r2,r2,1
    1b00:	1000091e 	bne	r2,zero,1b28 <_wait+0x1c4>
    1b04:	e0bffe17 	ldw	r2,-8(fp)
    1b08:	00c00074 	movhi	r3,1
    1b0c:	18ca4004 	addi	r3,r3,10496
    1b10:	1004913a 	slli	r2,r2,4
    1b14:	10c5883a 	add	r2,r2,r3
    1b18:	10800104 	addi	r2,r2,4
    1b1c:	10c00017 	ldw	r3,0(r2)
    1b20:	e0bfff17 	ldw	r2,-4(fp)
    1b24:	18801726 	beq	r3,r2,1b84 <_wait+0x220>
		ERR("The kernel has performed an illegal operation. Please contact customer support.");
    1b28:	00800074 	movhi	r2,1
    1b2c:	10835c04 	addi	r2,r2,3440
    1b30:	10800017 	ldw	r2,0(r2)
    1b34:	14000317 	ldw	r16,12(r2)
    1b38:	d1200004 	addi	r4,gp,-32768
    1b3c:	00007d80 	call	7d8 <head>
    1b40:	100d883a 	mov	r6,r2
    1b44:	8009883a 	mov	r4,r16
    1b48:	01400074 	movhi	r5,1
    1b4c:	297b3b04 	addi	r5,r5,-4884
    1b50:	000f883a 	mov	r7,zero
    1b54:	00029280 	call	2928 <fprintf>
    1b58:	e03ffb15 	stw	zero,-20(fp)
    1b5c:	00000306 	br	1b6c <_wait+0x208>
    1b60:	e0bffb17 	ldw	r2,-20(fp)
    1b64:	10800044 	addi	r2,r2,1
    1b68:	e0bffb15 	stw	r2,-20(fp)
    1b6c:	e0fffb17 	ldw	r3,-20(fp)
    1b70:	00800074 	movhi	r2,1
    1b74:	10893dc4 	addi	r2,r2,9463
    1b78:	10fff90e 	bge	r2,r3,1b60 <_wait+0x1fc>
		exit(1);
    1b7c:	01000044 	movi	r4,1
    1b80:	00028f00 	call	28f0 <exit>
	}

	/* we're back, restore timesTaken */
	monitors[myMonitor].timesTaken = myTaken;
    1b84:	e0bffe17 	ldw	r2,-8(fp)
    1b88:	00c00074 	movhi	r3,1
    1b8c:	18ca4004 	addi	r3,r3,10496
    1b90:	1004913a 	slli	r2,r2,4
    1b94:	10c7883a 	add	r3,r2,r3
    1b98:	e0bffd17 	ldw	r2,-12(fp)
    1b9c:	18800015 	stw	r2,0(r3)
}
    1ba0:	e037883a 	mov	sp,fp
    1ba4:	dfc00217 	ldw	ra,8(sp)
    1ba8:	df000117 	ldw	fp,4(sp)
    1bac:	dc000017 	ldw	r16,0(sp)
    1bb0:	dec00304 	addi	sp,sp,12
    1bb4:	f800283a 	ret

00001bb8 <timedWait>:

int timedWait(int time) {
    1bb8:	defff904 	addi	sp,sp,-28
    1bbc:	dfc00615 	stw	ra,24(sp)
    1bc0:	df000515 	stw	fp,20(sp)
    1bc4:	dc000415 	stw	r16,16(sp)
    1bc8:	df000404 	addi	fp,sp,16
    1bcc:	e13fff15 	stw	r4,-4(fp)
	maskInterrupts();
    1bd0:	000278c0 	call	278c <maskInterrupts>
	
	if(time < 0) {
    1bd4:	e0bfff17 	ldw	r2,-4(fp)
    1bd8:	1004403a 	cmpge	r2,r2,zero
    1bdc:	1000171e 	bne	r2,zero,1c3c <timedWait+0x84>
		ERR("[TimedWait] Please provide a valid timeout");
    1be0:	00800074 	movhi	r2,1
    1be4:	10835c04 	addi	r2,r2,3440
    1be8:	10800017 	ldw	r2,0(r2)
    1bec:	14000317 	ldw	r16,12(r2)
    1bf0:	d1200004 	addi	r4,gp,-32768
    1bf4:	00007d80 	call	7d8 <head>
    1bf8:	100d883a 	mov	r6,r2
    1bfc:	8009883a 	mov	r4,r16
    1c00:	01400074 	movhi	r5,1
    1c04:	297ba004 	addi	r5,r5,-4480
    1c08:	000f883a 	mov	r7,zero
    1c0c:	00029280 	call	2928 <fprintf>
    1c10:	e03ffc15 	stw	zero,-16(fp)
    1c14:	00000306 	br	1c24 <timedWait+0x6c>
    1c18:	e0bffc17 	ldw	r2,-16(fp)
    1c1c:	10800044 	addi	r2,r2,1
    1c20:	e0bffc15 	stw	r2,-16(fp)
    1c24:	e0fffc17 	ldw	r3,-16(fp)
    1c28:	00800074 	movhi	r2,1
    1c2c:	10893dc4 	addi	r2,r2,9463
    1c30:	10fff90e 	bge	r2,r3,1c18 <timedWait+0x60>
		exit(1);
    1c34:	01000044 	movi	r4,1
    1c38:	00028f00 	call	28f0 <exit>
	}
	
	int myPid = head(&readyList);
    1c3c:	d1200004 	addi	r4,gp,-32768
    1c40:	00007d80 	call	7d8 <head>
    1c44:	e0bffe15 	stw	r2,-8(fp)
	int returnValue = 1;
    1c48:	00800044 	movi	r2,1
    1c4c:	e0bffd15 	stw	r2,-12(fp)

	// Mark that the process is waiting
	processes[myPid].timeout = time;
    1c50:	e0bffe17 	ldw	r2,-8(fp)
    1c54:	00c00074 	movhi	r3,1
    1c58:	18ca6804 	addi	r3,r3,10656
    1c5c:	10800f24 	muli	r2,r2,60
    1c60:	10c5883a 	add	r2,r2,r3
    1c64:	10c00e04 	addi	r3,r2,56
    1c68:	e0bfff17 	ldw	r2,-4(fp)
    1c6c:	18800015 	stw	r2,0(r3)
	timedWaiting[myPid] = 1;
    1c70:	e0bffe17 	ldw	r2,-8(fp)
    1c74:	00c00074 	movhi	r3,1
    1c78:	18ca2c04 	addi	r3,r3,10416
    1c7c:	1085883a 	add	r2,r2,r2
    1c80:	1085883a 	add	r2,r2,r2
    1c84:	10c7883a 	add	r3,r2,r3
    1c88:	00800044 	movi	r2,1
    1c8c:	18800015 	stw	r2,0(r3)

	wait();
    1c90:	00019340 	call	1934 <wait>
	
	if(timedWaiting[myPid] != 0) {
    1c94:	e0bffe17 	ldw	r2,-8(fp)
    1c98:	00c00074 	movhi	r3,1
    1c9c:	18ca2c04 	addi	r3,r3,10416
    1ca0:	1085883a 	add	r2,r2,r2
    1ca4:	1085883a 	add	r2,r2,r2
    1ca8:	10c5883a 	add	r2,r2,r3
    1cac:	10800017 	ldw	r2,0(r2)
    1cb0:	1005003a 	cmpeq	r2,r2,zero
    1cb4:	1000081e 	bne	r2,zero,1cd8 <timedWait+0x120>
		returnValue = 0;
    1cb8:	e03ffd15 	stw	zero,-12(fp)
		timedWaiting[myPid] = 0;
    1cbc:	e0bffe17 	ldw	r2,-8(fp)
    1cc0:	00c00074 	movhi	r3,1
    1cc4:	18ca2c04 	addi	r3,r3,10416
    1cc8:	1085883a 	add	r2,r2,r2
    1ccc:	1085883a 	add	r2,r2,r2
    1cd0:	10c5883a 	add	r2,r2,r3
    1cd4:	10000015 	stw	zero,0(r2)
	}
	
	allowInterrupts();
    1cd8:	00027980 	call	2798 <allowInterrupts>
	
	return returnValue;
    1cdc:	e0bffd17 	ldw	r2,-12(fp)
}
    1ce0:	e037883a 	mov	sp,fp
    1ce4:	dfc00217 	ldw	ra,8(sp)
    1ce8:	df000117 	ldw	fp,4(sp)
    1cec:	dc000017 	ldw	r16,0(sp)
    1cf0:	dec00304 	addi	sp,sp,12
    1cf4:	f800283a 	ret

00001cf8 <sleep>:

void sleep(int time) {
    1cf8:	defffa04 	addi	sp,sp,-24
    1cfc:	dfc00515 	stw	ra,20(sp)
    1d00:	df000415 	stw	fp,16(sp)
    1d04:	dc000315 	stw	r16,12(sp)
    1d08:	df000304 	addi	fp,sp,12
    1d0c:	e13fff15 	stw	r4,-4(fp)
	maskInterrupts();
    1d10:	000278c0 	call	278c <maskInterrupts>

	if(time < 0) {
    1d14:	e0bfff17 	ldw	r2,-4(fp)
    1d18:	1004403a 	cmpge	r2,r2,zero
    1d1c:	1000171e 	bne	r2,zero,1d7c <sleep+0x84>
		ERR("[sleep] Please provide a valid timeout");
    1d20:	00800074 	movhi	r2,1
    1d24:	10835c04 	addi	r2,r2,3440
    1d28:	10800017 	ldw	r2,0(r2)
    1d2c:	14000317 	ldw	r16,12(r2)
    1d30:	d1200004 	addi	r4,gp,-32768
    1d34:	00007d80 	call	7d8 <head>
    1d38:	100d883a 	mov	r6,r2
    1d3c:	8009883a 	mov	r4,r16
    1d40:	01400074 	movhi	r5,1
    1d44:	297bae04 	addi	r5,r5,-4424
    1d48:	000f883a 	mov	r7,zero
    1d4c:	00029280 	call	2928 <fprintf>
    1d50:	e03ffd15 	stw	zero,-12(fp)
    1d54:	00000306 	br	1d64 <sleep+0x6c>
    1d58:	e0bffd17 	ldw	r2,-12(fp)
    1d5c:	10800044 	addi	r2,r2,1
    1d60:	e0bffd15 	stw	r2,-12(fp)
    1d64:	e0fffd17 	ldw	r3,-12(fp)
    1d68:	00800074 	movhi	r2,1
    1d6c:	10893dc4 	addi	r2,r2,9463
    1d70:	10fff90e 	bge	r2,r3,1d58 <sleep+0x60>
		exit(1);
    1d74:	01000044 	movi	r4,1
    1d78:	00028f00 	call	28f0 <exit>
	}

	int myPid = removeHead(&readyList);
    1d7c:	d1200004 	addi	r4,gp,-32768
    1d80:	00006840 	call	684 <removeHead>
    1d84:	e0bffe15 	stw	r2,-8(fp)

	timedWaiting[myPid] = 1;
    1d88:	e0bffe17 	ldw	r2,-8(fp)
    1d8c:	00c00074 	movhi	r3,1
    1d90:	18ca2c04 	addi	r3,r3,10416
    1d94:	1085883a 	add	r2,r2,r2
    1d98:	1085883a 	add	r2,r2,r2
    1d9c:	10c7883a 	add	r3,r2,r3
    1da0:	00800044 	movi	r2,1
    1da4:	18800015 	stw	r2,0(r3)
	processes[myPid].timeout = time;
    1da8:	e0bffe17 	ldw	r2,-8(fp)
    1dac:	00c00074 	movhi	r3,1
    1db0:	18ca6804 	addi	r3,r3,10656
    1db4:	10800f24 	muli	r2,r2,60
    1db8:	10c5883a 	add	r2,r2,r3
    1dbc:	10c00e04 	addi	r3,r2,56
    1dc0:	e0bfff17 	ldw	r2,-4(fp)
    1dc4:	18800015 	stw	r2,0(r3)

	if ( isEmpty(&readyList)) {
    1dc8:	d1200004 	addi	r4,gp,-32768
    1dcc:	00008000 	call	800 <isEmpty>
    1dd0:	1005003a 	cmpeq	r2,r2,zero
    1dd4:	1000091e 	bne	r2,zero,1dfc <sleep+0x104>
		transfer(processes[idle_pid].p);
    1dd8:	d0a6bf17 	ldw	r2,-25860(gp)
    1ddc:	00c00074 	movhi	r3,1
    1de0:	18ca6804 	addi	r3,r3,10656
    1de4:	10800f24 	muli	r2,r2,60
    1de8:	10c5883a 	add	r2,r2,r3
    1dec:	10800104 	addi	r2,r2,4
    1df0:	11000017 	ldw	r4,0(r2)
    1df4:	00025f00 	call	25f0 <transfer>
    1df8:	00000906 	br	1e20 <sleep+0x128>
	} else {
		transfer(processes[head(&readyList)].p);
    1dfc:	d1200004 	addi	r4,gp,-32768
    1e00:	00007d80 	call	7d8 <head>
    1e04:	00c00074 	movhi	r3,1
    1e08:	18ca6804 	addi	r3,r3,10656
    1e0c:	10800f24 	muli	r2,r2,60
    1e10:	10c5883a 	add	r2,r2,r3
    1e14:	10800104 	addi	r2,r2,4
    1e18:	11000017 	ldw	r4,0(r2)
    1e1c:	00025f00 	call	25f0 <transfer>
	}
	//timedWaiting[myPid] = 0;

	allowInterrupts();
    1e20:	00027980 	call	2798 <allowInterrupts>
}
    1e24:	e037883a 	mov	sp,fp
    1e28:	dfc00217 	ldw	ra,8(sp)
    1e2c:	df000117 	ldw	fp,4(sp)
    1e30:	dc000017 	ldw	r16,0(sp)
    1e34:	dec00304 	addi	sp,sp,12
    1e38:	f800283a 	ret

00001e3c <start>:
void start(){
    1e3c:	defffc04 	addi	sp,sp,-16
    1e40:	dfc00315 	stw	ra,12(sp)
    1e44:	df000215 	stw	fp,8(sp)
    1e48:	dc000115 	stw	r16,4(sp)
    1e4c:	df000104 	addi	fp,sp,4

	if(isEmpty(&readyList)) {
    1e50:	d1200004 	addi	r4,gp,-32768
    1e54:	00008000 	call	800 <isEmpty>
    1e58:	1005003a 	cmpeq	r2,r2,zero
    1e5c:	1000171e 	bne	r2,zero,1ebc <start+0x80>
		ERR("No processes in the ready list! Exiting...");
    1e60:	00800074 	movhi	r2,1
    1e64:	10835c04 	addi	r2,r2,3440
    1e68:	10800017 	ldw	r2,0(r2)
    1e6c:	14000317 	ldw	r16,12(r2)
    1e70:	d1200004 	addi	r4,gp,-32768
    1e74:	00007d80 	call	7d8 <head>
    1e78:	100d883a 	mov	r6,r2
    1e7c:	8009883a 	mov	r4,r16
    1e80:	01400074 	movhi	r5,1
    1e84:	297bbb04 	addi	r5,r5,-4372
    1e88:	000f883a 	mov	r7,zero
    1e8c:	00029280 	call	2928 <fprintf>
    1e90:	e03fff15 	stw	zero,-4(fp)
    1e94:	00000306 	br	1ea4 <start+0x68>
    1e98:	e0bfff17 	ldw	r2,-4(fp)
    1e9c:	10800044 	addi	r2,r2,1
    1ea0:	e0bfff15 	stw	r2,-4(fp)
    1ea4:	e0ffff17 	ldw	r3,-4(fp)
    1ea8:	00800074 	movhi	r2,1
    1eac:	10893dc4 	addi	r2,r2,9463
    1eb0:	10fff90e 	bge	r2,r3,1e98 <start+0x5c>
		exit(1);
    1eb4:	01000044 	movi	r4,1
    1eb8:	00028f00 	call	28f0 <exit>
	}
	DPRINT("Starting kernel...");
    1ebc:	d1200004 	addi	r4,gp,-32768
    1ec0:	00007d80 	call	7d8 <head>
    1ec4:	100b883a 	mov	r5,r2
    1ec8:	01000074 	movhi	r4,1
    1ecc:	213bc904 	addi	r4,r4,-4316
    1ed0:	000d883a 	mov	r6,zero
    1ed4:	00030f00 	call	30f0 <printf>

	idle_pid = createIdle();
    1ed8:	000155c0 	call	155c <createIdle>
    1edc:	d0a6bf15 	stw	r2,-25860(gp)
	scheduler_pid = createScheduler();
    1ee0:	00017f00 	call	17f0 <createScheduler>
    1ee4:	d0a6c015 	stw	r2,-25856(gp)

	//checkAndTransfer();
	transfer(processes[scheduler_pid].p);
    1ee8:	d0a6c017 	ldw	r2,-25856(gp)
    1eec:	00c00074 	movhi	r3,1
    1ef0:	18ca6804 	addi	r3,r3,10656
    1ef4:	10800f24 	muli	r2,r2,60
    1ef8:	10c5883a 	add	r2,r2,r3
    1efc:	10800104 	addi	r2,r2,4
    1f00:	11000017 	ldw	r4,0(r2)
    1f04:	00025f00 	call	25f0 <transfer>
}
    1f08:	e037883a 	mov	sp,fp
    1f0c:	dfc00217 	ldw	ra,8(sp)
    1f10:	df000117 	ldw	fp,4(sp)
    1f14:	dc000017 	ldw	r16,0(sp)
    1f18:	dec00304 	addi	sp,sp,12
    1f1c:	f800283a 	ret

00001f20 <initBuffer>:
	int message;
	int full;
	int monitor;
} Buffer;

void initBuffer(Buffer* b) {
    1f20:	defffd04 	addi	sp,sp,-12
    1f24:	dfc00215 	stw	ra,8(sp)
    1f28:	df000115 	stw	fp,4(sp)
    1f2c:	df000104 	addi	fp,sp,4
    1f30:	e13fff15 	stw	r4,-4(fp)
	b->monitor = createMonitor();
    1f34:	0000ca80 	call	ca8 <createMonitor>
    1f38:	e0ffff17 	ldw	r3,-4(fp)
    1f3c:	18800215 	stw	r2,8(r3)
	b->full = 0;
    1f40:	e0bfff17 	ldw	r2,-4(fp)
    1f44:	10000115 	stw	zero,4(r2)
}
    1f48:	e037883a 	mov	sp,fp
    1f4c:	dfc00117 	ldw	ra,4(sp)
    1f50:	df000017 	ldw	fp,0(sp)
    1f54:	dec00204 	addi	sp,sp,8
    1f58:	f800283a 	ret

00001f5c <put>:

void put(Buffer* b, int m) {
    1f5c:	defffc04 	addi	sp,sp,-16
    1f60:	dfc00315 	stw	ra,12(sp)
    1f64:	df000215 	stw	fp,8(sp)
    1f68:	df000204 	addi	fp,sp,8
    1f6c:	e13ffe15 	stw	r4,-8(fp)
    1f70:	e17fff15 	stw	r5,-4(fp)
	printf("put\n");
    1f74:	01000074 	movhi	r4,1
    1f78:	213bd004 	addi	r4,r4,-4288
    1f7c:	00032080 	call	3208 <puts>
	enterMonitor(b->monitor);
    1f80:	e0bffe17 	ldw	r2,-8(fp)
    1f84:	11000217 	ldw	r4,8(r2)
    1f88:	0000e400 	call	e40 <enterMonitor>
	while(b->full) {
    1f8c:	00000106 	br	1f94 <put+0x38>
		wait();
    1f90:	00019340 	call	1934 <wait>
}

void put(Buffer* b, int m) {
	printf("put\n");
	enterMonitor(b->monitor);
	while(b->full) {
    1f94:	e0bffe17 	ldw	r2,-8(fp)
    1f98:	10800117 	ldw	r2,4(r2)
    1f9c:	1004c03a 	cmpne	r2,r2,zero
    1fa0:	103ffb1e 	bne	r2,zero,1f90 <put+0x34>
		wait();
	}
	b->message = m;
    1fa4:	e0fffe17 	ldw	r3,-8(fp)
    1fa8:	e0bfff17 	ldw	r2,-4(fp)
    1fac:	18800015 	stw	r2,0(r3)
	b->full = 1;
    1fb0:	e0fffe17 	ldw	r3,-8(fp)
    1fb4:	00800044 	movi	r2,1
    1fb8:	18800115 	stw	r2,4(r3)
	notify();
    1fbc:	00012f40 	call	12f4 <notify>
	exitMonitor();
    1fc0:	00011300 	call	1130 <exitMonitor>

	return;
}
    1fc4:	e037883a 	mov	sp,fp
    1fc8:	dfc00117 	ldw	ra,4(sp)
    1fcc:	df000017 	ldw	fp,0(sp)
    1fd0:	dec00204 	addi	sp,sp,8
    1fd4:	f800283a 	ret

00001fd8 <get>:

int get(Buffer* b) {
    1fd8:	defffc04 	addi	sp,sp,-16
    1fdc:	dfc00315 	stw	ra,12(sp)
    1fe0:	df000215 	stw	fp,8(sp)
    1fe4:	df000204 	addi	fp,sp,8
    1fe8:	e13fff15 	stw	r4,-4(fp)
	printf("get\n");
    1fec:	01000074 	movhi	r4,1
    1ff0:	213bd104 	addi	r4,r4,-4284
    1ff4:	00032080 	call	3208 <puts>
	int m;

	enterMonitor(b->monitor);
    1ff8:	e0bfff17 	ldw	r2,-4(fp)
    1ffc:	11000217 	ldw	r4,8(r2)
    2000:	0000e400 	call	e40 <enterMonitor>
	while (!b->full) {
    2004:	00000106 	br	200c <get+0x34>
		wait();
    2008:	00019340 	call	1934 <wait>
int get(Buffer* b) {
	printf("get\n");
	int m;

	enterMonitor(b->monitor);
	while (!b->full) {
    200c:	e0bfff17 	ldw	r2,-4(fp)
    2010:	10800117 	ldw	r2,4(r2)
    2014:	1005003a 	cmpeq	r2,r2,zero
    2018:	103ffb1e 	bne	r2,zero,2008 <get+0x30>
		wait();
	}
	printf("got\n");
    201c:	01000074 	movhi	r4,1
    2020:	213bd204 	addi	r4,r4,-4280
    2024:	00032080 	call	3208 <puts>
	m = b->message;
    2028:	e0bfff17 	ldw	r2,-4(fp)
    202c:	10800017 	ldw	r2,0(r2)
    2030:	e0bffe15 	stw	r2,-8(fp)
	b->full = 0;
    2034:	e0bfff17 	ldw	r2,-4(fp)
    2038:	10000115 	stw	zero,4(r2)
	notifyAll();
    203c:	000141c0 	call	141c <notifyAll>
	exitMonitor();
    2040:	00011300 	call	1130 <exitMonitor>

	return m;
    2044:	e0bffe17 	ldw	r2,-8(fp)
}
    2048:	e037883a 	mov	sp,fp
    204c:	dfc00117 	ldw	ra,4(sp)
    2050:	df000017 	ldw	fp,0(sp)
    2054:	dec00204 	addi	sp,sp,8
    2058:	f800283a 	ret

0000205c <timedGet>:

int timedGet(Buffer *b, int timeout) {
    205c:	defffa04 	addi	sp,sp,-24
    2060:	dfc00515 	stw	ra,20(sp)
    2064:	df000415 	stw	fp,16(sp)
    2068:	df000404 	addi	fp,sp,16
    206c:	e13ffe15 	stw	r4,-8(fp)
    2070:	e17fff15 	stw	r5,-4(fp)
	printf("timedget\n");
    2074:	01000074 	movhi	r4,1
    2078:	213bd304 	addi	r4,r4,-4276
    207c:	00032080 	call	3208 <puts>
	int m, ret;

	enterMonitor(b->monitor);
    2080:	e0bffe17 	ldw	r2,-8(fp)
    2084:	11000217 	ldw	r4,8(r2)
    2088:	0000e400 	call	e40 <enterMonitor>
	if (!b->full) {
    208c:	e0bffe17 	ldw	r2,-8(fp)
    2090:	10800117 	ldw	r2,4(r2)
    2094:	1004c03a 	cmpne	r2,r2,zero
    2098:	1000031e 	bne	r2,zero,20a8 <timedGet+0x4c>
		ret = timedWait(timeout);
    209c:	e13fff17 	ldw	r4,-4(fp)
    20a0:	0001bb80 	call	1bb8 <timedWait>
    20a4:	e0bffc15 	stw	r2,-16(fp)
	}
	if (ret) {
    20a8:	e0bffc17 	ldw	r2,-16(fp)
    20ac:	1005003a 	cmpeq	r2,r2,zero
    20b0:	10000a1e 	bne	r2,zero,20dc <timedGet+0x80>
		m = b->message;
    20b4:	e0bffe17 	ldw	r2,-8(fp)
    20b8:	10800017 	ldw	r2,0(r2)
    20bc:	e0bffd15 	stw	r2,-12(fp)
		b->full = 0;
    20c0:	e0bffe17 	ldw	r2,-8(fp)
    20c4:	10000115 	stw	zero,4(r2)
		printf("timedgot\n");
    20c8:	01000074 	movhi	r4,1
    20cc:	213bd604 	addi	r4,r4,-4264
    20d0:	00032080 	call	3208 <puts>
		notifyAll();
    20d4:	000141c0 	call	141c <notifyAll>
    20d8:	00000506 	br	20f0 <timedGet+0x94>
	} else {
		m = TIMEOUT;
    20dc:	00bfffd4 	movui	r2,65535
    20e0:	e0bffd15 	stw	r2,-12(fp)
		printf("timedout\n");
    20e4:	01000074 	movhi	r4,1
    20e8:	213bd904 	addi	r4,r4,-4252
    20ec:	00032080 	call	3208 <puts>
	}

	exitMonitor();
    20f0:	00011300 	call	1130 <exitMonitor>
	return m;
    20f4:	e0bffd17 	ldw	r2,-12(fp)
}
    20f8:	e037883a 	mov	sp,fp
    20fc:	dfc00117 	ldw	ra,4(sp)
    2100:	df000017 	ldw	fp,0(sp)
    2104:	dec00204 	addi	sp,sp,8
    2108:	f800283a 	ret

0000210c <displayDigit>:
int digitCodes[] = {0x3E223E00, 0x203E2400, 0x2E2A3A00, 0x3E2A2A00, 0x3E080E00,
		0x3A2A2E00, 0x3A2A3E00, 0x3E020200, 0x3E2A3E00, 0x3E2A2E00, 0};
int lcdZones[] = {LED_0_BASE, LED_1_BASE, LED_2_BASE};

/* displays digit "no" in LCD zone "zone" */
void displayDigit(int zone, int no) {
    210c:	defffd04 	addi	sp,sp,-12
    2110:	df000215 	stw	fp,8(sp)
    2114:	df000204 	addi	fp,sp,8
    2118:	e13ffe15 	stw	r4,-8(fp)
    211c:	e17fff15 	stw	r5,-4(fp)
	IOWR_ALTERA_AVALON_PIO_DATA(lcdZones[zone], digitCodes[no]);
    2120:	e0bffe17 	ldw	r2,-8(fp)
    2124:	00c00074 	movhi	r3,1
    2128:	18fcd004 	addi	r3,r3,-3264
    212c:	1085883a 	add	r2,r2,r2
    2130:	1085883a 	add	r2,r2,r2
    2134:	10c5883a 	add	r2,r2,r3
    2138:	10800017 	ldw	r2,0(r2)
    213c:	1009883a 	mov	r4,r2
    2140:	e0bfff17 	ldw	r2,-4(fp)
    2144:	00c00074 	movhi	r3,1
    2148:	18fcc504 	addi	r3,r3,-3308
    214c:	1085883a 	add	r2,r2,r2
    2150:	1085883a 	add	r2,r2,r2
    2154:	10c5883a 	add	r2,r2,r3
    2158:	10c00017 	ldw	r3,0(r2)
    215c:	2005883a 	mov	r2,r4
    2160:	10c00035 	stwio	r3,0(r2)
}
    2164:	e037883a 	mov	sp,fp
    2168:	df000017 	ldw	fp,0(sp)
    216c:	dec00104 	addi	sp,sp,4
    2170:	f800283a 	ret

00002174 <displayNumber>:

void displayNumber(int no) {
    2174:	defffd04 	addi	sp,sp,-12
    2178:	dfc00215 	stw	ra,8(sp)
    217c:	df000115 	stw	fp,4(sp)
    2180:	df000104 	addi	fp,sp,4
    2184:	e13fff15 	stw	r4,-4(fp)
	displayDigit(2, no % 10);
    2188:	e13fff17 	ldw	r4,-4(fp)
    218c:	01400284 	movi	r5,10
    2190:	00028800 	call	2880 <__modsi3>
    2194:	100b883a 	mov	r5,r2
    2198:	01000084 	movi	r4,2
    219c:	000210c0 	call	210c <displayDigit>
	displayDigit(1, (no / 10) % 10);
    21a0:	e13fff17 	ldw	r4,-4(fp)
    21a4:	01400284 	movi	r5,10
    21a8:	00028200 	call	2820 <__divsi3>
    21ac:	1009883a 	mov	r4,r2
    21b0:	01400284 	movi	r5,10
    21b4:	00028800 	call	2880 <__modsi3>
    21b8:	100b883a 	mov	r5,r2
    21bc:	01000044 	movi	r4,1
    21c0:	000210c0 	call	210c <displayDigit>
	displayDigit(0, no / 100);
    21c4:	e13fff17 	ldw	r4,-4(fp)
    21c8:	01401904 	movi	r5,100
    21cc:	00028200 	call	2820 <__divsi3>
    21d0:	100b883a 	mov	r5,r2
    21d4:	0009883a 	mov	r4,zero
    21d8:	000210c0 	call	210c <displayDigit>
}
    21dc:	e037883a 	mov	sp,fp
    21e0:	dfc00117 	ldw	ra,4(sp)
    21e4:	df000017 	ldw	fp,0(sp)
    21e8:	dec00204 	addi	sp,sp,8
    21ec:	f800283a 	ret

000021f0 <producer>:

void producer(){
    21f0:	defffa04 	addi	sp,sp,-24
    21f4:	dfc00515 	stw	ra,20(sp)
    21f8:	df000415 	stw	fp,16(sp)
    21fc:	df000404 	addi	fp,sp,16
	int temp;

	printf("Producer starting...\n");
    2200:	01000074 	movhi	r4,1
    2204:	213bdc04 	addi	r4,r4,-4240
    2208:	00032080 	call	3208 <puts>
    220c:	00000006 	br	2210 <producer+0x20>

	while(1) {
		waitInterrupt(1);
    2210:	01000044 	movi	r4,1
    2214:	00018280 	call	1828 <waitInterrupt>
		temp = edge_capture;
    2218:	00800074 	movhi	r2,1
    221c:	108a1504 	addi	r2,r2,10324
    2220:	10800017 	ldw	r2,0(r2)
    2224:	e0bffc15 	stw	r2,-16(fp)
		if (temp != 0) {
    2228:	e0bffc17 	ldw	r2,-16(fp)
    222c:	1005003a 	cmpeq	r2,r2,zero
    2230:	103ff71e 	bne	r2,zero,2210 <producer+0x20>

			/* check button 0 */
			if (temp%2==1) {
    2234:	e0bffc17 	ldw	r2,-16(fp)
    2238:	00e00034 	movhi	r3,32768
    223c:	18c00044 	addi	r3,r3,1
    2240:	10c4703a 	and	r2,r2,r3
    2244:	e0bffd15 	stw	r2,-12(fp)
    2248:	e0fffd17 	ldw	r3,-12(fp)
    224c:	1804403a 	cmpge	r2,r3,zero
    2250:	10000a1e 	bne	r2,zero,227c <producer+0x8c>
    2254:	e0bffd17 	ldw	r2,-12(fp)
    2258:	10bfffc4 	addi	r2,r2,-1
    225c:	e0bffd15 	stw	r2,-12(fp)
    2260:	00bfff84 	movi	r2,-2
    2264:	e0fffd17 	ldw	r3,-12(fp)
    2268:	1886b03a 	or	r3,r3,r2
    226c:	e0fffd15 	stw	r3,-12(fp)
    2270:	e0bffd17 	ldw	r2,-12(fp)
    2274:	10800044 	addi	r2,r2,1
    2278:	e0bffd15 	stw	r2,-12(fp)
    227c:	e0bffd17 	ldw	r2,-12(fp)
    2280:	10800058 	cmpnei	r2,r2,1
    2284:	1000041e 	bne	r2,zero,2298 <producer+0xa8>

				put(&b0, RESET);
    2288:	01000074 	movhi	r4,1
    228c:	210afe04 	addi	r4,r4,11256
    2290:	01444444 	movi	r5,4369
    2294:	0001f5c0 	call	1f5c <put>
			}

			/* check button 1 */
			temp = temp >> 1;
    2298:	e0bffc17 	ldw	r2,-16(fp)
    229c:	1005d07a 	srai	r2,r2,1
    22a0:	e0bffc15 	stw	r2,-16(fp)
			if (temp%2==1) {
    22a4:	e0fffc17 	ldw	r3,-16(fp)
    22a8:	00a00034 	movhi	r2,32768
    22ac:	10800044 	addi	r2,r2,1
    22b0:	1886703a 	and	r3,r3,r2
    22b4:	e0fffe15 	stw	r3,-8(fp)
    22b8:	e0fffe17 	ldw	r3,-8(fp)
    22bc:	1804403a 	cmpge	r2,r3,zero
    22c0:	10000a1e 	bne	r2,zero,22ec <producer+0xfc>
    22c4:	e0bffe17 	ldw	r2,-8(fp)
    22c8:	10bfffc4 	addi	r2,r2,-1
    22cc:	e0bffe15 	stw	r2,-8(fp)
    22d0:	00bfff84 	movi	r2,-2
    22d4:	e0fffe17 	ldw	r3,-8(fp)
    22d8:	1886b03a 	or	r3,r3,r2
    22dc:	e0fffe15 	stw	r3,-8(fp)
    22e0:	e0bffe17 	ldw	r2,-8(fp)
    22e4:	10800044 	addi	r2,r2,1
    22e8:	e0bffe15 	stw	r2,-8(fp)
    22ec:	e0bffe17 	ldw	r2,-8(fp)
    22f0:	10800058 	cmpnei	r2,r2,1
    22f4:	1000041e 	bne	r2,zero,2308 <producer+0x118>

				put(&b0, START);
    22f8:	01000074 	movhi	r4,1
    22fc:	210afe04 	addi	r4,r4,11256
    2300:	01488884 	movi	r5,8738
    2304:	0001f5c0 	call	1f5c <put>
			}

			/* check button 2 */
			temp = temp >> 1;
    2308:	e0bffc17 	ldw	r2,-16(fp)
    230c:	1005d07a 	srai	r2,r2,1
    2310:	e0bffc15 	stw	r2,-16(fp)
			if (temp%2==1) {
    2314:	e0fffc17 	ldw	r3,-16(fp)
    2318:	00a00034 	movhi	r2,32768
    231c:	10800044 	addi	r2,r2,1
    2320:	1886703a 	and	r3,r3,r2
    2324:	e0ffff15 	stw	r3,-4(fp)
    2328:	e0ffff17 	ldw	r3,-4(fp)
    232c:	1804403a 	cmpge	r2,r3,zero
    2330:	10000a1e 	bne	r2,zero,235c <producer+0x16c>
    2334:	e0bfff17 	ldw	r2,-4(fp)
    2338:	10bfffc4 	addi	r2,r2,-1
    233c:	e0bfff15 	stw	r2,-4(fp)
    2340:	00bfff84 	movi	r2,-2
    2344:	e0ffff17 	ldw	r3,-4(fp)
    2348:	1886b03a 	or	r3,r3,r2
    234c:	e0ffff15 	stw	r3,-4(fp)
    2350:	e0bfff17 	ldw	r2,-4(fp)
    2354:	10800044 	addi	r2,r2,1
    2358:	e0bfff15 	stw	r2,-4(fp)
    235c:	e0bfff17 	ldw	r2,-4(fp)
    2360:	10800058 	cmpnei	r2,r2,1
    2364:	103faa1e 	bne	r2,zero,2210 <producer+0x20>

				put(&b0, STOP);
    2368:	01000074 	movhi	r4,1
    236c:	210afe04 	addi	r4,r4,11256
    2370:	014cccc4 	movi	r5,13107
    2374:	0001f5c0 	call	1f5c <put>
			}

			/* button 3 ignored */
		}
	}
    2378:	003fa506 	br	2210 <producer+0x20>

0000237c <consumer>:
}


void consumer(){
    237c:	defffb04 	addi	sp,sp,-20
    2380:	dfc00415 	stw	ra,16(sp)
    2384:	df000315 	stw	fp,12(sp)
    2388:	df000304 	addi	fp,sp,12
	int m;

	printf("Consumer starting...\n");
    238c:	01000074 	movhi	r4,1
    2390:	213be204 	addi	r4,r4,-4216
    2394:	00032080 	call	3208 <puts>
    2398:	00000006 	br	239c <consumer+0x20>
	while (1) {
		m = displayOn ? get(&b0) : timedGet(&b0, FREEZE_FOR);
    239c:	d0a00117 	ldw	r2,-32764(gp)
    23a0:	1005003a 	cmpeq	r2,r2,zero
    23a4:	1000051e 	bne	r2,zero,23bc <consumer+0x40>
    23a8:	01000074 	movhi	r4,1
    23ac:	210afe04 	addi	r4,r4,11256
    23b0:	0001fd80 	call	1fd8 <get>
    23b4:	e0bffe15 	stw	r2,-8(fp)
    23b8:	00000506 	br	23d0 <consumer+0x54>
    23bc:	01000074 	movhi	r4,1
    23c0:	210afe04 	addi	r4,r4,11256
    23c4:	0142ee04 	movi	r5,3000
    23c8:	000205c0 	call	205c <timedGet>
    23cc:	e0bffe15 	stw	r2,-8(fp)
    23d0:	e0bffe17 	ldw	r2,-8(fp)
    23d4:	e0bffd15 	stw	r2,-12(fp)

		switch (m) {
    23d8:	e0fffd17 	ldw	r3,-12(fp)
    23dc:	e0ffff15 	stw	r3,-4(fp)
    23e0:	e0ffff17 	ldw	r3,-4(fp)
    23e4:	188888a0 	cmpeqi	r2,r3,8738
    23e8:	1000161e 	bne	r2,zero,2444 <consumer+0xc8>
    23ec:	e0ffff17 	ldw	r3,-4(fp)
    23f0:	188888c8 	cmpgei	r2,r3,8739
    23f4:	1000041e 	bne	r2,zero,2408 <consumer+0x8c>
    23f8:	e0ffff17 	ldw	r3,-4(fp)
    23fc:	18844460 	cmpeqi	r2,r3,4369
    2400:	1000081e 	bne	r2,zero,2424 <consumer+0xa8>
    2404:	00002506 	br	249c <consumer+0x120>
    2408:	e0ffff17 	ldw	r3,-4(fp)
    240c:	188ccce0 	cmpeqi	r2,r3,13107
    2410:	10001a1e 	bne	r2,zero,247c <consumer+0x100>
    2414:	00bfffd4 	movui	r2,65535
    2418:	e0ffff17 	ldw	r3,-4(fp)
    241c:	18801c26 	beq	r3,r2,2490 <consumer+0x114>
    2420:	00001e06 	br	249c <consumer+0x120>
		case RESET:
			printf("Reset.\n");
    2424:	01000074 	movhi	r4,1
    2428:	213be804 	addi	r4,r4,-4192
    242c:	00032080 	call	3208 <puts>
			displayOn = 1;
    2430:	00800044 	movi	r2,1
    2434:	d0a00115 	stw	r2,-32764(gp)
			reset = 1;
    2438:	00800044 	movi	r2,1
    243c:	d0a6c115 	stw	r2,-25852(gp)
			break;
    2440:	003fd606 	br	239c <consumer+0x20>
		case START:
			printf("Start/Freeze.\n");
    2444:	01000074 	movhi	r4,1
    2448:	213bea04 	addi	r4,r4,-4184
    244c:	00032080 	call	3208 <puts>
			if (started)
    2450:	d0a6c217 	ldw	r2,-25848(gp)
    2454:	1005003a 	cmpeq	r2,r2,zero
    2458:	1000051e 	bne	r2,zero,2470 <consumer+0xf4>
				displayOn = 1 - displayOn;
    245c:	d0a00117 	ldw	r2,-32764(gp)
    2460:	00c00044 	movi	r3,1
    2464:	1885c83a 	sub	r2,r3,r2
    2468:	d0a00115 	stw	r2,-32764(gp)
    246c:	003fcb06 	br	239c <consumer+0x20>
			else
				started = 1;
    2470:	00800044 	movi	r2,1
    2474:	d0a6c215 	stw	r2,-25848(gp)
			break;
    2478:	003fc806 	br	239c <consumer+0x20>
		case STOP:
			printf("Stop.\n");
    247c:	01000074 	movhi	r4,1
    2480:	213bee04 	addi	r4,r4,-4168
    2484:	00032080 	call	3208 <puts>
			started = 0;
    2488:	d026c215 	stw	zero,-25848(gp)
			break;
    248c:	003fc306 	br	239c <consumer+0x20>
		case TIMEOUT:
			displayOn = 1;
    2490:	00800044 	movi	r2,1
    2494:	d0a00115 	stw	r2,-32764(gp)
			break;
    2498:	003fc006 	br	239c <consumer+0x20>
		default:
			printf("Wrong command!\n");
    249c:	01000074 	movhi	r4,1
    24a0:	213bf004 	addi	r4,r4,-4160
    24a4:	00032080 	call	3208 <puts>
			break;
		}
	}
    24a8:	003fbc06 	br	239c <consumer+0x20>

000024ac <countAndDisplay>:
}

void countAndDisplay() {
    24ac:	defffd04 	addi	sp,sp,-12
    24b0:	dfc00215 	stw	ra,8(sp)
    24b4:	df000115 	stw	fp,4(sp)
    24b8:	df000104 	addi	fp,sp,4
	int counter = 0;
    24bc:	e03fff15 	stw	zero,-4(fp)

	displayNumber(counter);
    24c0:	e13fff17 	ldw	r4,-4(fp)
    24c4:	00021740 	call	2174 <displayNumber>

	while(1) {
		if (displayOn) {
    24c8:	d0a00117 	ldw	r2,-32764(gp)
    24cc:	1005003a 	cmpeq	r2,r2,zero
    24d0:	1000021e 	bne	r2,zero,24dc <countAndDisplay+0x30>
			displayNumber(counter);
    24d4:	e13fff17 	ldw	r4,-4(fp)
    24d8:	00021740 	call	2174 <displayNumber>
		}
		if (started)
    24dc:	d0a6c217 	ldw	r2,-25848(gp)
    24e0:	1005003a 	cmpeq	r2,r2,zero
    24e4:	1000051e 	bne	r2,zero,24fc <countAndDisplay+0x50>
			counter = (counter + 1) % 1000;
    24e8:	e0bfff17 	ldw	r2,-4(fp)
    24ec:	11000044 	addi	r4,r2,1
    24f0:	0140fa04 	movi	r5,1000
    24f4:	00028800 	call	2880 <__modsi3>
    24f8:	e0bfff15 	stw	r2,-4(fp)
		if (reset) {
    24fc:	d0a6c117 	ldw	r2,-25852(gp)
    2500:	1005003a 	cmpeq	r2,r2,zero
    2504:	1000021e 	bne	r2,zero,2510 <countAndDisplay+0x64>
			counter = 0;
    2508:	e03fff15 	stw	zero,-4(fp)
			reset = 0;
    250c:	d026c115 	stw	zero,-25852(gp)
		}

		sleep(INTERVAL);
    2510:	01001904 	movi	r4,100
    2514:	0001cf80 	call	1cf8 <sleep>
	}
    2518:	003feb06 	br	24c8 <countAndDisplay+0x1c>

0000251c <main>:
}

int main() {
    251c:	defffe04 	addi	sp,sp,-8
    2520:	dfc00115 	stw	ra,4(sp)
    2524:	df000015 	stw	fp,0(sp)
    2528:	d839883a 	mov	fp,sp
	IOWR_ALTERA_AVALON_PIO_DATA(LED_COLOR_BASE, LED_COLOR_RESET_VALUE);
    252c:	00c08034 	movhi	r3,512
    2530:	18d43c04 	addi	r3,r3,20720
    2534:	00803ff4 	movhi	r2,255
    2538:	18800035 	stwio	r2,0(r3)
	initBuffer(&b0);
    253c:	01000074 	movhi	r4,1
    2540:	210afe04 	addi	r4,r4,11256
    2544:	0001f200 	call	1f20 <initBuffer>

	createProcess(producer, STACK_SIZE);
    2548:	01000034 	movhi	r4,0
    254c:	21087c04 	addi	r4,r4,8688
    2550:	0149c404 	movi	r5,10000
    2554:	000082c0 	call	82c <createProcess>
	createProcess(consumer, STACK_SIZE);
    2558:	01000034 	movhi	r4,0
    255c:	2108df04 	addi	r4,r4,9084
    2560:	0149c404 	movi	r5,10000
    2564:	000082c0 	call	82c <createProcess>
	createProcess(countAndDisplay, STACK_SIZE);
    2568:	01000034 	movhi	r4,0
    256c:	21092b04 	addi	r4,r4,9388
    2570:	0149c404 	movi	r5,10000
    2574:	000082c0 	call	82c <createProcess>

	start();
    2578:	0001e3c0 	call	1e3c <start>
	return 0;
    257c:	0005883a 	mov	r2,zero
}
    2580:	e037883a 	mov	sp,fp
    2584:	dfc00117 	ldw	ra,4(sp)
    2588:	df000017 	ldw	fp,0(sp)
    258c:	dec00204 	addi	sp,sp,8
    2590:	f800283a 	ret

00002594 <newProcess>:


Process running = NULL;  // pointer to the current process.
Process nextP = NULL;  // variable used internally to implement transfer and iotransfer procedures

Process newProcess(void (*f), unsigned int* stack, int stackSize){
    2594:	defff804 	addi	sp,sp,-32
    2598:	dfc00715 	stw	ra,28(sp)
    259c:	df000615 	stw	fp,24(sp)
    25a0:	df000604 	addi	fp,sp,24
    25a4:	e13ffd15 	stw	r4,-12(fp)
    25a8:	e17ffe15 	stw	r5,-8(fp)
    25ac:	e1bfff15 	stw	r6,-4(fp)
    
    unsigned int* newPC = f;
    25b0:	e0bffd17 	ldw	r2,-12(fp)
    25b4:	e0bffc15 	stw	r2,-16(fp)
    int size = stackSize - 4;
    25b8:	e0bfff17 	ldw	r2,-4(fp)
    25bc:	10bfff04 	addi	r2,r2,-4
    25c0:	e0bffb15 	stw	r2,-20(fp)
    
    Process process = _createStack(stack,newPC,size);
    25c4:	e13ffe17 	ldw	r4,-8(fp)
    25c8:	e17ffc17 	ldw	r5,-16(fp)
    25cc:	e1bffb17 	ldw	r6,-20(fp)
    25d0:	00026800 	call	2680 <_createStack>
    25d4:	e0bffa15 	stw	r2,-24(fp)
    return process;
    25d8:	e0bffa17 	ldw	r2,-24(fp)
}
    25dc:	e037883a 	mov	sp,fp
    25e0:	dfc00117 	ldw	ra,4(sp)
    25e4:	df000017 	ldw	fp,0(sp)
    25e8:	dec00204 	addi	sp,sp,8
    25ec:	f800283a 	ret

000025f0 <transfer>:

/**
 * Called mainly from interrupt routine.
 * (Except for the first call)
 */
void transfer(Process p){
    25f0:	defffd04 	addi	sp,sp,-12
    25f4:	dfc00215 	stw	ra,8(sp)
    25f8:	df000115 	stw	fp,4(sp)
    25fc:	df000104 	addi	fp,sp,4
    2600:	e13fff15 	stw	r4,-4(fp)
    
    if(running == NULL){
    2604:	d0a6c317 	ldw	r2,-25844(gp)
    2608:	1004c03a 	cmpne	r2,r2,zero
    260c:	1000031e 	bne	r2,zero,261c <transfer+0x2c>
        running = malloc(sizeof(Process));
    2610:	01000104 	movi	r4,4
    2614:	000299c0 	call	299c <malloc>
    2618:	d0a6c315 	stw	r2,-25844(gp)
    }
    nextP = p ;
    261c:	e0bfff17 	ldw	r2,-4(fp)
    2620:	d0a6c415 	stw	r2,-25840(gp)
    _transfer();
    2624:	000269c0 	call	269c <_transfer>
   
}
    2628:	e037883a 	mov	sp,fp
    262c:	dfc00117 	ldw	ra,4(sp)
    2630:	df000017 	ldw	fp,0(sp)
    2634:	dec00204 	addi	sp,sp,8
    2638:	f800283a 	ret

0000263c <iotransfer>:

/**
 * Called from kernel thread.
 */
void iotransfer(Process p, int interruptV){
    263c:	defffc04 	addi	sp,sp,-16
    2640:	dfc00315 	stw	ra,12(sp)
    2644:	df000215 	stw	fp,8(sp)
    2648:	df000204 	addi	fp,sp,8
    264c:	e13ffe15 	stw	r4,-8(fp)
    2650:	e17fff15 	stw	r5,-4(fp)
    
    insertTail(interruptV, running);
    2654:	d166c317 	ldw	r5,-25844(gp)
    2658:	e13fff17 	ldw	r4,-4(fp)
    265c:	00002a40 	call	2a4 <insertTail>
    nextP = p;
    2660:	e0bffe17 	ldw	r2,-8(fp)
    2664:	d0a6c415 	stw	r2,-25840(gp)
    _transfer();
    2668:	000269c0 	call	269c <_transfer>
   
}
    266c:	e037883a 	mov	sp,fp
    2670:	dfc00117 	ldw	ra,4(sp)
    2674:	df000017 	ldw	fp,0(sp)
    2678:	dec00204 	addi	sp,sp,8
    267c:	f800283a 	ret

00002680 <_createStack>:
.text
_createStack: #r4 = newSP
			  #r5 = newPC
			  #r6 = stackSize - 4
	   # pointer to the bottom of the stack
	   add r2, r4, r6
    2680:	2185883a 	add	r2,r4,r6
	   # init sp with r8
	   addi r8, r2, -100 # sp
    2684:	123fe704 	addi	r8,r2,-100
	   stw  r5, 0(r8)   # sp[0] = PC
    2688:	41400015 	stw	r5,0(r8)
	   addi r9, r0, 1
    268c:	02400044 	movi	r9,1
	   stw  r9, 96(r8)  # sp[24] = status = 1
    2690:	42401815 	stw	r9,96(r8)
	   # store sp on the stack bottom
	   stw  r8, 0(r2)
    2694:	12000015 	stw	r8,0(r2)
	   # return pointer to stack address
	   ret
    2698:	f800283a 	ret

0000269c <_transfer>:
 * (eret instruction retores estatus into status register, while jumping at ea)
 */
.global _transfer
.text
_transfer:
	addi sp, sp, -100
    269c:	deffe704 	addi	sp,sp,-100
	stw ra,  0(sp)
    26a0:	dfc00015 	stw	ra,0(sp)
    stw fp,  4(sp)
    26a4:	df000115 	stw	fp,4(sp)
    stw r2,  8(sp)
    26a8:	d8800215 	stw	r2,8(sp)
    stw r3,  12(sp)
    26ac:	d8c00315 	stw	r3,12(sp)
    stw r4,  16(sp)
    26b0:	d9000415 	stw	r4,16(sp)
    stw r5,  20(sp)
    26b4:	d9400515 	stw	r5,20(sp)
    stw r6,  24(sp)
    26b8:	d9800615 	stw	r6,24(sp)
    stw r7,  28(sp)
    26bc:	d9c00715 	stw	r7,28(sp)
    stw r8,  32(sp)
    26c0:	da000815 	stw	r8,32(sp)
    stw r9,  36(sp)
    26c4:	da400915 	stw	r9,36(sp)
    stw r10, 40(sp)
    26c8:	da800a15 	stw	r10,40(sp)
    stw r11, 44(sp)
    26cc:	dac00b15 	stw	r11,44(sp)
    stw r12, 48(sp)
    26d0:	db000c15 	stw	r12,48(sp)
    stw r13, 52(sp)
    26d4:	db400d15 	stw	r13,52(sp)
    stw r14, 56(sp)
    26d8:	db800e15 	stw	r14,56(sp)
    stw r15, 60(sp)
    26dc:	dbc00f15 	stw	r15,60(sp)
    stw r16, 64(sp)
    26e0:	dc001015 	stw	r16,64(sp)
    stw r17, 68(sp)
    26e4:	dc401115 	stw	r17,68(sp)
    stw r18, 72(sp)
    26e8:	dc801215 	stw	r18,72(sp)
    stw r19, 76(sp)
    26ec:	dcc01315 	stw	r19,76(sp)
    stw r20, 80(sp)
    26f0:	dd001415 	stw	r20,80(sp)
    stw r21, 84(sp)
    26f4:	dd401515 	stw	r21,84(sp)
    stw r22, 88(sp)
    26f8:	dd801615 	stw	r22,88(sp)
    stw r23, 92(sp)
    26fc:	ddc01715 	stw	r23,92(sp)
	# save the current interrupt switch status
    rdctl r2, status
    2700:	0005303a 	rdctl	r2,status
    stw   r2, 96(sp)
    2704:	d8801815 	stw	r2,96(sp)
    # running->sp = sp
    ldw r2, %gprel(running)(gp)
    2708:	d0a6c317 	ldw	r2,-25844(gp)
    stw sp, (r2)
    270c:	16c00015 	stw	sp,0(r2)
    # running = nextP
	ldw r2, %gprel(nextP)(gp)
    2710:	d0a6c417 	ldw	r2,-25840(gp)
	stw r2, %gprel(running)(gp)
    2714:	d0a6c315 	stw	r2,-25844(gp)
	# set sp to the sp from the nextP
	ldw sp, (r2)
    2718:	16c00017 	ldw	sp,0(r2)
	# return using bret -> ba
	ldw ba,  0(sp)
    271c:	df800017 	ldw	r30,0(sp)
    ldw fp,  4(sp)
    2720:	df000117 	ldw	fp,4(sp)
    ldw r2,  8(sp)
    2724:	d8800217 	ldw	r2,8(sp)
    ldw r3,  12(sp)
    2728:	d8c00317 	ldw	r3,12(sp)
    ldw r4,  16(sp)
    272c:	d9000417 	ldw	r4,16(sp)
    ldw r5,  20(sp)
    2730:	d9400517 	ldw	r5,20(sp)
    ldw r6,  24(sp)
    2734:	d9800617 	ldw	r6,24(sp)
    ldw r7,  28(sp)
    2738:	d9c00717 	ldw	r7,28(sp)
    ldw r8,  32(sp)
    273c:	da000817 	ldw	r8,32(sp)
    ldw r9,  36(sp)
    2740:	da400917 	ldw	r9,36(sp)
    ldw r10, 40(sp)
    2744:	da800a17 	ldw	r10,40(sp)
    ldw r11, 44(sp)
    2748:	dac00b17 	ldw	r11,44(sp)
    ldw r12, 48(sp)
    274c:	db000c17 	ldw	r12,48(sp)
    ldw r13, 52(sp)
    2750:	db400d17 	ldw	r13,52(sp)
    ldw r14, 56(sp)
    2754:	db800e17 	ldw	r14,56(sp)
    ldw r15, 60(sp)
    2758:	dbc00f17 	ldw	r15,60(sp)
    ldw r16, 64(sp)
    275c:	dc001017 	ldw	r16,64(sp)
    ldw r17, 68(sp)
    2760:	dc401117 	ldw	r17,68(sp)
    ldw r18, 72(sp)
    2764:	dc801217 	ldw	r18,72(sp)
    ldw r19, 76(sp)
    2768:	dcc01317 	ldw	r19,76(sp)
    ldw r20, 80(sp)
    276c:	dd001417 	ldw	r20,80(sp)
    ldw r21, 84(sp)
    2770:	dd401517 	ldw	r21,84(sp)
    ldw r22, 88(sp)
    2774:	dd801617 	ldw	r22,88(sp)
	# restore interrupt switch status into bstatus
    ldw r23, 96(sp)
    2778:	ddc01817 	ldw	r23,96(sp)
    wrctl bstatus, r23
    277c:	b80170ba 	wrctl	bstatus,r23
    ldw r23, 92(sp)
    2780:	ddc01717 	ldw	r23,92(sp)

	addi sp, sp, 100
    2784:	dec01904 	addi	sp,sp,100
	# bret will copy back bstatus into status and go to ba
	bret
    2788:	f000483a 	bret

0000278c <maskInterrupts>:


.global maskInterrupts
.text
maskInterrupts:
	addi r9, r0, 0
    278c:	02400004 	movi	r9,0
	wrctl status, r9
    2790:	4801703a 	wrctl	status,r9
	ret
    2794:	f800283a 	ret

00002798 <allowInterrupts>:

.global allowInterrupts
.text
allowInterrupts:
	addi r9, r0, 1
    2798:	02400044 	movi	r9,1
	wrctl status, r9
    279c:	4801703a 	wrctl	status,r9
	ret
    27a0:	f800283a 	ret

000027a4 <udivmodsi4>:
    27a4:	29001b2e 	bgeu	r5,r4,2814 <udivmodsi4+0x70>
    27a8:	28001a16 	blt	r5,zero,2814 <udivmodsi4+0x70>
    27ac:	00800044 	movi	r2,1
    27b0:	0007883a 	mov	r3,zero
    27b4:	01c007c4 	movi	r7,31
    27b8:	00000306 	br	27c8 <udivmodsi4+0x24>
    27bc:	19c01326 	beq	r3,r7,280c <udivmodsi4+0x68>
    27c0:	18c00044 	addi	r3,r3,1
    27c4:	28000416 	blt	r5,zero,27d8 <udivmodsi4+0x34>
    27c8:	294b883a 	add	r5,r5,r5
    27cc:	1085883a 	add	r2,r2,r2
    27d0:	293ffa36 	bltu	r5,r4,27bc <udivmodsi4+0x18>
    27d4:	10000d26 	beq	r2,zero,280c <udivmodsi4+0x68>
    27d8:	0007883a 	mov	r3,zero
    27dc:	21400236 	bltu	r4,r5,27e8 <udivmodsi4+0x44>
    27e0:	2149c83a 	sub	r4,r4,r5
    27e4:	1886b03a 	or	r3,r3,r2
    27e8:	1004d07a 	srli	r2,r2,1
    27ec:	280ad07a 	srli	r5,r5,1
    27f0:	103ffa1e 	bne	r2,zero,27dc <udivmodsi4+0x38>
    27f4:	30000226 	beq	r6,zero,2800 <udivmodsi4+0x5c>
    27f8:	2005883a 	mov	r2,r4
    27fc:	f800283a 	ret
    2800:	1809883a 	mov	r4,r3
    2804:	2005883a 	mov	r2,r4
    2808:	f800283a 	ret
    280c:	0007883a 	mov	r3,zero
    2810:	003ff806 	br	27f4 <udivmodsi4+0x50>
    2814:	00800044 	movi	r2,1
    2818:	0007883a 	mov	r3,zero
    281c:	003fef06 	br	27dc <udivmodsi4+0x38>

00002820 <__divsi3>:
    2820:	defffe04 	addi	sp,sp,-8
    2824:	dc000015 	stw	r16,0(sp)
    2828:	dfc00115 	stw	ra,4(sp)
    282c:	0021883a 	mov	r16,zero
    2830:	20000c16 	blt	r4,zero,2864 <__divsi3+0x44>
    2834:	000d883a 	mov	r6,zero
    2838:	28000e16 	blt	r5,zero,2874 <__divsi3+0x54>
    283c:	00027a40 	call	27a4 <udivmodsi4>
    2840:	1007883a 	mov	r3,r2
    2844:	8005003a 	cmpeq	r2,r16,zero
    2848:	1000011e 	bne	r2,zero,2850 <__divsi3+0x30>
    284c:	00c7c83a 	sub	r3,zero,r3
    2850:	1805883a 	mov	r2,r3
    2854:	dfc00117 	ldw	ra,4(sp)
    2858:	dc000017 	ldw	r16,0(sp)
    285c:	dec00204 	addi	sp,sp,8
    2860:	f800283a 	ret
    2864:	0109c83a 	sub	r4,zero,r4
    2868:	04000044 	movi	r16,1
    286c:	000d883a 	mov	r6,zero
    2870:	283ff20e 	bge	r5,zero,283c <__divsi3+0x1c>
    2874:	014bc83a 	sub	r5,zero,r5
    2878:	8021003a 	cmpeq	r16,r16,zero
    287c:	003fef06 	br	283c <__divsi3+0x1c>

00002880 <__modsi3>:
    2880:	deffff04 	addi	sp,sp,-4
    2884:	dfc00015 	stw	ra,0(sp)
    2888:	01800044 	movi	r6,1
    288c:	2807883a 	mov	r3,r5
    2890:	20000416 	blt	r4,zero,28a4 <__modsi3+0x24>
    2894:	28000c16 	blt	r5,zero,28c8 <__modsi3+0x48>
    2898:	dfc00017 	ldw	ra,0(sp)
    289c:	dec00104 	addi	sp,sp,4
    28a0:	00027a41 	jmpi	27a4 <udivmodsi4>
    28a4:	0109c83a 	sub	r4,zero,r4
    28a8:	28000b16 	blt	r5,zero,28d8 <__modsi3+0x58>
    28ac:	180b883a 	mov	r5,r3
    28b0:	01800044 	movi	r6,1
    28b4:	00027a40 	call	27a4 <udivmodsi4>
    28b8:	0085c83a 	sub	r2,zero,r2
    28bc:	dfc00017 	ldw	ra,0(sp)
    28c0:	dec00104 	addi	sp,sp,4
    28c4:	f800283a 	ret
    28c8:	014bc83a 	sub	r5,zero,r5
    28cc:	dfc00017 	ldw	ra,0(sp)
    28d0:	dec00104 	addi	sp,sp,4
    28d4:	00027a41 	jmpi	27a4 <udivmodsi4>
    28d8:	0147c83a 	sub	r3,zero,r5
    28dc:	003ff306 	br	28ac <__modsi3+0x2c>

000028e0 <__udivsi3>:
    28e0:	000d883a 	mov	r6,zero
    28e4:	00027a41 	jmpi	27a4 <udivmodsi4>

000028e8 <__umodsi3>:
    28e8:	01800044 	movi	r6,1
    28ec:	00027a41 	jmpi	27a4 <udivmodsi4>

000028f0 <exit>:
    28f0:	defffe04 	addi	sp,sp,-8
    28f4:	000b883a 	mov	r5,zero
    28f8:	dc000015 	stw	r16,0(sp)
    28fc:	dfc00115 	stw	ra,4(sp)
    2900:	2021883a 	mov	r16,r4
    2904:	00053680 	call	5368 <__call_exitprocs>
    2908:	00800074 	movhi	r2,1
    290c:	10835d04 	addi	r2,r2,3444
    2910:	11000017 	ldw	r4,0(r2)
    2914:	20800f17 	ldw	r2,60(r4)
    2918:	10000126 	beq	r2,zero,2920 <exit+0x30>
    291c:	103ee83a 	callr	r2
    2920:	8009883a 	mov	r4,r16
    2924:	000c3240 	call	c324 <_exit>

00002928 <fprintf>:
    2928:	defffc04 	addi	sp,sp,-16
    292c:	dfc00115 	stw	ra,4(sp)
    2930:	d9800215 	stw	r6,8(sp)
    2934:	d9c00315 	stw	r7,12(sp)
    2938:	d8800204 	addi	r2,sp,8
    293c:	100d883a 	mov	r6,r2
    2940:	d8800015 	stw	r2,0(sp)
    2944:	00052040 	call	5204 <__vfprintf_internal>
    2948:	dfc00117 	ldw	ra,4(sp)
    294c:	dec00404 	addi	sp,sp,16
    2950:	f800283a 	ret

00002954 <_fprintf_r>:
    2954:	defffd04 	addi	sp,sp,-12
    2958:	2807883a 	mov	r3,r5
    295c:	dfc00115 	stw	ra,4(sp)
    2960:	d9c00215 	stw	r7,8(sp)
    2964:	d8800204 	addi	r2,sp,8
    2968:	300b883a 	mov	r5,r6
    296c:	1809883a 	mov	r4,r3
    2970:	100d883a 	mov	r6,r2
    2974:	d8800015 	stw	r2,0(sp)
    2978:	00052040 	call	5204 <__vfprintf_internal>
    297c:	dfc00117 	ldw	ra,4(sp)
    2980:	dec00304 	addi	sp,sp,12
    2984:	f800283a 	ret

00002988 <free>:
    2988:	00800074 	movhi	r2,1
    298c:	10835c04 	addi	r2,r2,3440
    2990:	200b883a 	mov	r5,r4
    2994:	11000017 	ldw	r4,0(r2)
    2998:	00073001 	jmpi	7300 <_free_r>

0000299c <malloc>:
    299c:	00800074 	movhi	r2,1
    29a0:	10835c04 	addi	r2,r2,3440
    29a4:	200b883a 	mov	r5,r4
    29a8:	11000017 	ldw	r4,0(r2)
    29ac:	00029b01 	jmpi	29b0 <_malloc_r>

000029b0 <_malloc_r>:
    29b0:	defff604 	addi	sp,sp,-40
    29b4:	28c002c4 	addi	r3,r5,11
    29b8:	00800584 	movi	r2,22
    29bc:	dc800215 	stw	r18,8(sp)
    29c0:	dfc00915 	stw	ra,36(sp)
    29c4:	df000815 	stw	fp,32(sp)
    29c8:	ddc00715 	stw	r23,28(sp)
    29cc:	dd800615 	stw	r22,24(sp)
    29d0:	dd400515 	stw	r21,20(sp)
    29d4:	dd000415 	stw	r20,16(sp)
    29d8:	dcc00315 	stw	r19,12(sp)
    29dc:	dc400115 	stw	r17,4(sp)
    29e0:	dc000015 	stw	r16,0(sp)
    29e4:	2025883a 	mov	r18,r4
    29e8:	10c01236 	bltu	r2,r3,2a34 <_malloc_r+0x84>
    29ec:	04400404 	movi	r17,16
    29f0:	8940142e 	bgeu	r17,r5,2a44 <_malloc_r+0x94>
    29f4:	00800304 	movi	r2,12
    29f8:	0007883a 	mov	r3,zero
    29fc:	90800015 	stw	r2,0(r18)
    2a00:	1805883a 	mov	r2,r3
    2a04:	dfc00917 	ldw	ra,36(sp)
    2a08:	df000817 	ldw	fp,32(sp)
    2a0c:	ddc00717 	ldw	r23,28(sp)
    2a10:	dd800617 	ldw	r22,24(sp)
    2a14:	dd400517 	ldw	r21,20(sp)
    2a18:	dd000417 	ldw	r20,16(sp)
    2a1c:	dcc00317 	ldw	r19,12(sp)
    2a20:	dc800217 	ldw	r18,8(sp)
    2a24:	dc400117 	ldw	r17,4(sp)
    2a28:	dc000017 	ldw	r16,0(sp)
    2a2c:	dec00a04 	addi	sp,sp,40
    2a30:	f800283a 	ret
    2a34:	00bffe04 	movi	r2,-8
    2a38:	18a2703a 	and	r17,r3,r2
    2a3c:	883fed16 	blt	r17,zero,29f4 <_malloc_r+0x44>
    2a40:	897fec36 	bltu	r17,r5,29f4 <_malloc_r+0x44>
    2a44:	9009883a 	mov	r4,r18
    2a48:	000ca000 	call	ca00 <__malloc_lock>
    2a4c:	00807dc4 	movi	r2,503
    2a50:	14402b2e 	bgeu	r2,r17,2b00 <_malloc_r+0x150>
    2a54:	8806d27a 	srli	r3,r17,9
    2a58:	18003f1e 	bne	r3,zero,2b58 <_malloc_r+0x1a8>
    2a5c:	880cd0fa 	srli	r6,r17,3
    2a60:	300490fa 	slli	r2,r6,3
    2a64:	02c00074 	movhi	r11,1
    2a68:	5afdd304 	addi	r11,r11,-2228
    2a6c:	12cb883a 	add	r5,r2,r11
    2a70:	2c000317 	ldw	r16,12(r5)
    2a74:	580f883a 	mov	r7,r11
    2a78:	2c00041e 	bne	r5,r16,2a8c <_malloc_r+0xdc>
    2a7c:	00000a06 	br	2aa8 <_malloc_r+0xf8>
    2a80:	1800860e 	bge	r3,zero,2c9c <_malloc_r+0x2ec>
    2a84:	84000317 	ldw	r16,12(r16)
    2a88:	2c000726 	beq	r5,r16,2aa8 <_malloc_r+0xf8>
    2a8c:	80800117 	ldw	r2,4(r16)
    2a90:	00ffff04 	movi	r3,-4
    2a94:	10c8703a 	and	r4,r2,r3
    2a98:	2447c83a 	sub	r3,r4,r17
    2a9c:	008003c4 	movi	r2,15
    2aa0:	10fff70e 	bge	r2,r3,2a80 <_malloc_r+0xd0>
    2aa4:	31bfffc4 	addi	r6,r6,-1
    2aa8:	32400044 	addi	r9,r6,1
    2aac:	02800074 	movhi	r10,1
    2ab0:	52bdd504 	addi	r10,r10,-2220
    2ab4:	54000217 	ldw	r16,8(r10)
    2ab8:	8280a026 	beq	r16,r10,2d3c <_malloc_r+0x38c>
    2abc:	80800117 	ldw	r2,4(r16)
    2ac0:	00ffff04 	movi	r3,-4
    2ac4:	10ca703a 	and	r5,r2,r3
    2ac8:	2c4dc83a 	sub	r6,r5,r17
    2acc:	008003c4 	movi	r2,15
    2ad0:	11808316 	blt	r2,r6,2ce0 <_malloc_r+0x330>
    2ad4:	52800315 	stw	r10,12(r10)
    2ad8:	52800215 	stw	r10,8(r10)
    2adc:	30002916 	blt	r6,zero,2b84 <_malloc_r+0x1d4>
    2ae0:	8147883a 	add	r3,r16,r5
    2ae4:	18800117 	ldw	r2,4(r3)
    2ae8:	9009883a 	mov	r4,r18
    2aec:	10800054 	ori	r2,r2,1
    2af0:	18800115 	stw	r2,4(r3)
    2af4:	000ca200 	call	ca20 <__malloc_unlock>
    2af8:	80c00204 	addi	r3,r16,8
    2afc:	003fc006 	br	2a00 <_malloc_r+0x50>
    2b00:	02c00074 	movhi	r11,1
    2b04:	5afdd304 	addi	r11,r11,-2228
    2b08:	8ac5883a 	add	r2,r17,r11
    2b0c:	14000317 	ldw	r16,12(r2)
    2b10:	580f883a 	mov	r7,r11
    2b14:	8806d0fa 	srli	r3,r17,3
    2b18:	14006c26 	beq	r2,r16,2ccc <_malloc_r+0x31c>
    2b1c:	80c00117 	ldw	r3,4(r16)
    2b20:	00bfff04 	movi	r2,-4
    2b24:	81800317 	ldw	r6,12(r16)
    2b28:	1886703a 	and	r3,r3,r2
    2b2c:	80c7883a 	add	r3,r16,r3
    2b30:	18800117 	ldw	r2,4(r3)
    2b34:	81400217 	ldw	r5,8(r16)
    2b38:	9009883a 	mov	r4,r18
    2b3c:	10800054 	ori	r2,r2,1
    2b40:	18800115 	stw	r2,4(r3)
    2b44:	31400215 	stw	r5,8(r6)
    2b48:	29800315 	stw	r6,12(r5)
    2b4c:	000ca200 	call	ca20 <__malloc_unlock>
    2b50:	80c00204 	addi	r3,r16,8
    2b54:	003faa06 	br	2a00 <_malloc_r+0x50>
    2b58:	00800104 	movi	r2,4
    2b5c:	10c0052e 	bgeu	r2,r3,2b74 <_malloc_r+0x1c4>
    2b60:	00800504 	movi	r2,20
    2b64:	10c07836 	bltu	r2,r3,2d48 <_malloc_r+0x398>
    2b68:	198016c4 	addi	r6,r3,91
    2b6c:	300490fa 	slli	r2,r6,3
    2b70:	003fbc06 	br	2a64 <_malloc_r+0xb4>
    2b74:	8804d1ba 	srli	r2,r17,6
    2b78:	11800e04 	addi	r6,r2,56
    2b7c:	300490fa 	slli	r2,r6,3
    2b80:	003fb806 	br	2a64 <_malloc_r+0xb4>
    2b84:	00807fc4 	movi	r2,511
    2b88:	1140bb36 	bltu	r2,r5,2e78 <_malloc_r+0x4c8>
    2b8c:	2806d0fa 	srli	r3,r5,3
    2b90:	573ffe04 	addi	fp,r10,-8
    2b94:	00800044 	movi	r2,1
    2b98:	180890fa 	slli	r4,r3,3
    2b9c:	1807d0ba 	srai	r3,r3,2
    2ba0:	e1c00117 	ldw	r7,4(fp)
    2ba4:	5909883a 	add	r4,r11,r4
    2ba8:	21400217 	ldw	r5,8(r4)
    2bac:	10c4983a 	sll	r2,r2,r3
    2bb0:	81000315 	stw	r4,12(r16)
    2bb4:	81400215 	stw	r5,8(r16)
    2bb8:	388eb03a 	or	r7,r7,r2
    2bbc:	2c000315 	stw	r16,12(r5)
    2bc0:	24000215 	stw	r16,8(r4)
    2bc4:	e1c00115 	stw	r7,4(fp)
    2bc8:	4807883a 	mov	r3,r9
    2bcc:	4800cd16 	blt	r9,zero,2f04 <_malloc_r+0x554>
    2bd0:	1807d0ba 	srai	r3,r3,2
    2bd4:	00800044 	movi	r2,1
    2bd8:	10c8983a 	sll	r4,r2,r3
    2bdc:	39004436 	bltu	r7,r4,2cf0 <_malloc_r+0x340>
    2be0:	21c4703a 	and	r2,r4,r7
    2be4:	10000a1e 	bne	r2,zero,2c10 <_malloc_r+0x260>
    2be8:	2109883a 	add	r4,r4,r4
    2bec:	00bfff04 	movi	r2,-4
    2bf0:	4884703a 	and	r2,r9,r2
    2bf4:	3906703a 	and	r3,r7,r4
    2bf8:	12400104 	addi	r9,r2,4
    2bfc:	1800041e 	bne	r3,zero,2c10 <_malloc_r+0x260>
    2c00:	2109883a 	add	r4,r4,r4
    2c04:	3904703a 	and	r2,r7,r4
    2c08:	4a400104 	addi	r9,r9,4
    2c0c:	103ffc26 	beq	r2,zero,2c00 <_malloc_r+0x250>
    2c10:	480490fa 	slli	r2,r9,3
    2c14:	4819883a 	mov	r12,r9
    2c18:	023fff04 	movi	r8,-4
    2c1c:	589b883a 	add	r13,r11,r2
    2c20:	6807883a 	mov	r3,r13
    2c24:	014003c4 	movi	r5,15
    2c28:	1c000317 	ldw	r16,12(r3)
    2c2c:	1c00041e 	bne	r3,r16,2c40 <_malloc_r+0x290>
    2c30:	0000a706 	br	2ed0 <_malloc_r+0x520>
    2c34:	3000ab0e 	bge	r6,zero,2ee4 <_malloc_r+0x534>
    2c38:	84000317 	ldw	r16,12(r16)
    2c3c:	1c00a426 	beq	r3,r16,2ed0 <_malloc_r+0x520>
    2c40:	80800117 	ldw	r2,4(r16)
    2c44:	1204703a 	and	r2,r2,r8
    2c48:	144dc83a 	sub	r6,r2,r17
    2c4c:	29bff90e 	bge	r5,r6,2c34 <_malloc_r+0x284>
    2c50:	81000317 	ldw	r4,12(r16)
    2c54:	80c00217 	ldw	r3,8(r16)
    2c58:	89400054 	ori	r5,r17,1
    2c5c:	8445883a 	add	r2,r16,r17
    2c60:	20c00215 	stw	r3,8(r4)
    2c64:	19000315 	stw	r4,12(r3)
    2c68:	81400115 	stw	r5,4(r16)
    2c6c:	1187883a 	add	r3,r2,r6
    2c70:	31000054 	ori	r4,r6,1
    2c74:	50800315 	stw	r2,12(r10)
    2c78:	50800215 	stw	r2,8(r10)
    2c7c:	19800015 	stw	r6,0(r3)
    2c80:	11000115 	stw	r4,4(r2)
    2c84:	12800215 	stw	r10,8(r2)
    2c88:	12800315 	stw	r10,12(r2)
    2c8c:	9009883a 	mov	r4,r18
    2c90:	000ca200 	call	ca20 <__malloc_unlock>
    2c94:	80c00204 	addi	r3,r16,8
    2c98:	003f5906 	br	2a00 <_malloc_r+0x50>
    2c9c:	8109883a 	add	r4,r16,r4
    2ca0:	20800117 	ldw	r2,4(r4)
    2ca4:	80c00217 	ldw	r3,8(r16)
    2ca8:	81400317 	ldw	r5,12(r16)
    2cac:	10800054 	ori	r2,r2,1
    2cb0:	20800115 	stw	r2,4(r4)
    2cb4:	28c00215 	stw	r3,8(r5)
    2cb8:	19400315 	stw	r5,12(r3)
    2cbc:	9009883a 	mov	r4,r18
    2cc0:	000ca200 	call	ca20 <__malloc_unlock>
    2cc4:	80c00204 	addi	r3,r16,8
    2cc8:	003f4d06 	br	2a00 <_malloc_r+0x50>
    2ccc:	80800204 	addi	r2,r16,8
    2cd0:	14000317 	ldw	r16,12(r2)
    2cd4:	143f911e 	bne	r2,r16,2b1c <_malloc_r+0x16c>
    2cd8:	1a400084 	addi	r9,r3,2
    2cdc:	003f7306 	br	2aac <_malloc_r+0xfc>
    2ce0:	88c00054 	ori	r3,r17,1
    2ce4:	8445883a 	add	r2,r16,r17
    2ce8:	80c00115 	stw	r3,4(r16)
    2cec:	003fdf06 	br	2c6c <_malloc_r+0x2bc>
    2cf0:	e4000217 	ldw	r16,8(fp)
    2cf4:	00bfff04 	movi	r2,-4
    2cf8:	80c00117 	ldw	r3,4(r16)
    2cfc:	802d883a 	mov	r22,r16
    2d00:	18aa703a 	and	r21,r3,r2
    2d04:	ac401636 	bltu	r21,r17,2d60 <_malloc_r+0x3b0>
    2d08:	ac49c83a 	sub	r4,r21,r17
    2d0c:	008003c4 	movi	r2,15
    2d10:	1100130e 	bge	r2,r4,2d60 <_malloc_r+0x3b0>
    2d14:	88800054 	ori	r2,r17,1
    2d18:	8447883a 	add	r3,r16,r17
    2d1c:	80800115 	stw	r2,4(r16)
    2d20:	20800054 	ori	r2,r4,1
    2d24:	18800115 	stw	r2,4(r3)
    2d28:	e0c00215 	stw	r3,8(fp)
    2d2c:	9009883a 	mov	r4,r18
    2d30:	000ca200 	call	ca20 <__malloc_unlock>
    2d34:	80c00204 	addi	r3,r16,8
    2d38:	003f3106 	br	2a00 <_malloc_r+0x50>
    2d3c:	39c00117 	ldw	r7,4(r7)
    2d40:	573ffe04 	addi	fp,r10,-8
    2d44:	003fa006 	br	2bc8 <_malloc_r+0x218>
    2d48:	00801504 	movi	r2,84
    2d4c:	10c06736 	bltu	r2,r3,2eec <_malloc_r+0x53c>
    2d50:	8804d33a 	srli	r2,r17,12
    2d54:	11801b84 	addi	r6,r2,110
    2d58:	300490fa 	slli	r2,r6,3
    2d5c:	003f4106 	br	2a64 <_malloc_r+0xb4>
    2d60:	d0a6c517 	ldw	r2,-25836(gp)
    2d64:	d0e00517 	ldw	r3,-32748(gp)
    2d68:	053fffc4 	movi	r20,-1
    2d6c:	10800404 	addi	r2,r2,16
    2d70:	88a7883a 	add	r19,r17,r2
    2d74:	1d000326 	beq	r3,r20,2d84 <_malloc_r+0x3d4>
    2d78:	98c3ffc4 	addi	r3,r19,4095
    2d7c:	00bc0004 	movi	r2,-4096
    2d80:	18a6703a 	and	r19,r3,r2
    2d84:	9009883a 	mov	r4,r18
    2d88:	980b883a 	mov	r5,r19
    2d8c:	000321c0 	call	321c <_sbrk_r>
    2d90:	1009883a 	mov	r4,r2
    2d94:	15000426 	beq	r2,r20,2da8 <_malloc_r+0x3f8>
    2d98:	854b883a 	add	r5,r16,r21
    2d9c:	1029883a 	mov	r20,r2
    2da0:	11405a2e 	bgeu	r2,r5,2f0c <_malloc_r+0x55c>
    2da4:	87000c26 	beq	r16,fp,2dd8 <_malloc_r+0x428>
    2da8:	e4000217 	ldw	r16,8(fp)
    2dac:	80c00117 	ldw	r3,4(r16)
    2db0:	00bfff04 	movi	r2,-4
    2db4:	1884703a 	and	r2,r3,r2
    2db8:	14400336 	bltu	r2,r17,2dc8 <_malloc_r+0x418>
    2dbc:	1449c83a 	sub	r4,r2,r17
    2dc0:	008003c4 	movi	r2,15
    2dc4:	113fd316 	blt	r2,r4,2d14 <_malloc_r+0x364>
    2dc8:	9009883a 	mov	r4,r18
    2dcc:	000ca200 	call	ca20 <__malloc_unlock>
    2dd0:	0007883a 	mov	r3,zero
    2dd4:	003f0a06 	br	2a00 <_malloc_r+0x50>
    2dd8:	05c00074 	movhi	r23,1
    2ddc:	bdca3604 	addi	r23,r23,10456
    2de0:	b8800017 	ldw	r2,0(r23)
    2de4:	988d883a 	add	r6,r19,r2
    2de8:	b9800015 	stw	r6,0(r23)
    2dec:	d0e00517 	ldw	r3,-32748(gp)
    2df0:	00bfffc4 	movi	r2,-1
    2df4:	18808e26 	beq	r3,r2,3030 <_malloc_r+0x680>
    2df8:	2145c83a 	sub	r2,r4,r5
    2dfc:	3085883a 	add	r2,r6,r2
    2e00:	b8800015 	stw	r2,0(r23)
    2e04:	20c001cc 	andi	r3,r4,7
    2e08:	18005f1e 	bne	r3,zero,2f88 <_malloc_r+0x5d8>
    2e0c:	000b883a 	mov	r5,zero
    2e10:	a4c5883a 	add	r2,r20,r19
    2e14:	1083ffcc 	andi	r2,r2,4095
    2e18:	00c40004 	movi	r3,4096
    2e1c:	1887c83a 	sub	r3,r3,r2
    2e20:	28e7883a 	add	r19,r5,r3
    2e24:	9009883a 	mov	r4,r18
    2e28:	980b883a 	mov	r5,r19
    2e2c:	000321c0 	call	321c <_sbrk_r>
    2e30:	1007883a 	mov	r3,r2
    2e34:	00bfffc4 	movi	r2,-1
    2e38:	18807a26 	beq	r3,r2,3024 <_malloc_r+0x674>
    2e3c:	1d05c83a 	sub	r2,r3,r20
    2e40:	9885883a 	add	r2,r19,r2
    2e44:	10c00054 	ori	r3,r2,1
    2e48:	b8800017 	ldw	r2,0(r23)
    2e4c:	a021883a 	mov	r16,r20
    2e50:	a0c00115 	stw	r3,4(r20)
    2e54:	9885883a 	add	r2,r19,r2
    2e58:	b8800015 	stw	r2,0(r23)
    2e5c:	e5000215 	stw	r20,8(fp)
    2e60:	b7003626 	beq	r22,fp,2f3c <_malloc_r+0x58c>
    2e64:	018003c4 	movi	r6,15
    2e68:	35404b36 	bltu	r6,r21,2f98 <_malloc_r+0x5e8>
    2e6c:	00800044 	movi	r2,1
    2e70:	a0800115 	stw	r2,4(r20)
    2e74:	003fcd06 	br	2dac <_malloc_r+0x3fc>
    2e78:	2808d27a 	srli	r4,r5,9
    2e7c:	2000371e 	bne	r4,zero,2f5c <_malloc_r+0x5ac>
    2e80:	2808d0fa 	srli	r4,r5,3
    2e84:	200690fa 	slli	r3,r4,3
    2e88:	1ad1883a 	add	r8,r3,r11
    2e8c:	41800217 	ldw	r6,8(r8)
    2e90:	41805b26 	beq	r8,r6,3000 <_malloc_r+0x650>
    2e94:	30800117 	ldw	r2,4(r6)
    2e98:	00ffff04 	movi	r3,-4
    2e9c:	10c4703a 	and	r2,r2,r3
    2ea0:	2880022e 	bgeu	r5,r2,2eac <_malloc_r+0x4fc>
    2ea4:	31800217 	ldw	r6,8(r6)
    2ea8:	41bffa1e 	bne	r8,r6,2e94 <_malloc_r+0x4e4>
    2eac:	32000317 	ldw	r8,12(r6)
    2eb0:	39c00117 	ldw	r7,4(r7)
    2eb4:	82000315 	stw	r8,12(r16)
    2eb8:	81800215 	stw	r6,8(r16)
    2ebc:	07000074 	movhi	fp,1
    2ec0:	e73dd304 	addi	fp,fp,-2228
    2ec4:	34000315 	stw	r16,12(r6)
    2ec8:	44000215 	stw	r16,8(r8)
    2ecc:	003f3e06 	br	2bc8 <_malloc_r+0x218>
    2ed0:	63000044 	addi	r12,r12,1
    2ed4:	608000cc 	andi	r2,r12,3
    2ed8:	10005d26 	beq	r2,zero,3050 <_malloc_r+0x6a0>
    2edc:	18c00204 	addi	r3,r3,8
    2ee0:	003f5106 	br	2c28 <_malloc_r+0x278>
    2ee4:	8089883a 	add	r4,r16,r2
    2ee8:	003f6d06 	br	2ca0 <_malloc_r+0x2f0>
    2eec:	00805504 	movi	r2,340
    2ef0:	10c02036 	bltu	r2,r3,2f74 <_malloc_r+0x5c4>
    2ef4:	8804d3fa 	srli	r2,r17,15
    2ef8:	11801dc4 	addi	r6,r2,119
    2efc:	300490fa 	slli	r2,r6,3
    2f00:	003ed806 	br	2a64 <_malloc_r+0xb4>
    2f04:	48c000c4 	addi	r3,r9,3
    2f08:	003f3106 	br	2bd0 <_malloc_r+0x220>
    2f0c:	05c00074 	movhi	r23,1
    2f10:	bdca3604 	addi	r23,r23,10456
    2f14:	b8800017 	ldw	r2,0(r23)
    2f18:	988d883a 	add	r6,r19,r2
    2f1c:	b9800015 	stw	r6,0(r23)
    2f20:	293fb21e 	bne	r5,r4,2dec <_malloc_r+0x43c>
    2f24:	2083ffcc 	andi	r2,r4,4095
    2f28:	103fb01e 	bne	r2,zero,2dec <_malloc_r+0x43c>
    2f2c:	e4000217 	ldw	r16,8(fp)
    2f30:	9d45883a 	add	r2,r19,r21
    2f34:	10800054 	ori	r2,r2,1
    2f38:	80800115 	stw	r2,4(r16)
    2f3c:	b8c00017 	ldw	r3,0(r23)
    2f40:	d0a6c617 	ldw	r2,-25832(gp)
    2f44:	10c0012e 	bgeu	r2,r3,2f4c <_malloc_r+0x59c>
    2f48:	d0e6c615 	stw	r3,-25832(gp)
    2f4c:	d0a6c717 	ldw	r2,-25828(gp)
    2f50:	10ff962e 	bgeu	r2,r3,2dac <_malloc_r+0x3fc>
    2f54:	d0e6c715 	stw	r3,-25828(gp)
    2f58:	003f9406 	br	2dac <_malloc_r+0x3fc>
    2f5c:	00800104 	movi	r2,4
    2f60:	11001e36 	bltu	r2,r4,2fdc <_malloc_r+0x62c>
    2f64:	2804d1ba 	srli	r2,r5,6
    2f68:	11000e04 	addi	r4,r2,56
    2f6c:	200690fa 	slli	r3,r4,3
    2f70:	003fc506 	br	2e88 <_malloc_r+0x4d8>
    2f74:	00815504 	movi	r2,1364
    2f78:	10c01d2e 	bgeu	r2,r3,2ff0 <_malloc_r+0x640>
    2f7c:	01801f84 	movi	r6,126
    2f80:	0080fc04 	movi	r2,1008
    2f84:	003eb706 	br	2a64 <_malloc_r+0xb4>
    2f88:	00800204 	movi	r2,8
    2f8c:	10cbc83a 	sub	r5,r2,r3
    2f90:	2169883a 	add	r20,r4,r5
    2f94:	003f9e06 	br	2e10 <_malloc_r+0x460>
    2f98:	00bffe04 	movi	r2,-8
    2f9c:	a93ffd04 	addi	r4,r21,-12
    2fa0:	2088703a 	and	r4,r4,r2
    2fa4:	b10b883a 	add	r5,r22,r4
    2fa8:	00c00144 	movi	r3,5
    2fac:	28c00215 	stw	r3,8(r5)
    2fb0:	28c00115 	stw	r3,4(r5)
    2fb4:	b0800117 	ldw	r2,4(r22)
    2fb8:	1080004c 	andi	r2,r2,1
    2fbc:	2084b03a 	or	r2,r4,r2
    2fc0:	b0800115 	stw	r2,4(r22)
    2fc4:	313fdd2e 	bgeu	r6,r4,2f3c <_malloc_r+0x58c>
    2fc8:	b1400204 	addi	r5,r22,8
    2fcc:	9009883a 	mov	r4,r18
    2fd0:	00073000 	call	7300 <_free_r>
    2fd4:	e4000217 	ldw	r16,8(fp)
    2fd8:	003fd806 	br	2f3c <_malloc_r+0x58c>
    2fdc:	00800504 	movi	r2,20
    2fe0:	11001536 	bltu	r2,r4,3038 <_malloc_r+0x688>
    2fe4:	210016c4 	addi	r4,r4,91
    2fe8:	200690fa 	slli	r3,r4,3
    2fec:	003fa606 	br	2e88 <_malloc_r+0x4d8>
    2ff0:	8804d4ba 	srli	r2,r17,18
    2ff4:	11801f04 	addi	r6,r2,124
    2ff8:	300490fa 	slli	r2,r6,3
    2ffc:	003e9906 	br	2a64 <_malloc_r+0xb4>
    3000:	2009d0ba 	srai	r4,r4,2
    3004:	01400074 	movhi	r5,1
    3008:	297dd304 	addi	r5,r5,-2228
    300c:	00c00044 	movi	r3,1
    3010:	28800117 	ldw	r2,4(r5)
    3014:	1906983a 	sll	r3,r3,r4
    3018:	10c4b03a 	or	r2,r2,r3
    301c:	28800115 	stw	r2,4(r5)
    3020:	003fa306 	br	2eb0 <_malloc_r+0x500>
    3024:	0027883a 	mov	r19,zero
    3028:	00c00044 	movi	r3,1
    302c:	003f8606 	br	2e48 <_malloc_r+0x498>
    3030:	d1200515 	stw	r4,-32748(gp)
    3034:	003f7306 	br	2e04 <_malloc_r+0x454>
    3038:	00801504 	movi	r2,84
    303c:	11001936 	bltu	r2,r4,30a4 <_malloc_r+0x6f4>
    3040:	2804d33a 	srli	r2,r5,12
    3044:	11001b84 	addi	r4,r2,110
    3048:	200690fa 	slli	r3,r4,3
    304c:	003f8e06 	br	2e88 <_malloc_r+0x4d8>
    3050:	480b883a 	mov	r5,r9
    3054:	6807883a 	mov	r3,r13
    3058:	288000cc 	andi	r2,r5,3
    305c:	18fffe04 	addi	r3,r3,-8
    3060:	297fffc4 	addi	r5,r5,-1
    3064:	10001526 	beq	r2,zero,30bc <_malloc_r+0x70c>
    3068:	18800217 	ldw	r2,8(r3)
    306c:	10fffa26 	beq	r2,r3,3058 <_malloc_r+0x6a8>
    3070:	2109883a 	add	r4,r4,r4
    3074:	393f1e36 	bltu	r7,r4,2cf0 <_malloc_r+0x340>
    3078:	203f1d26 	beq	r4,zero,2cf0 <_malloc_r+0x340>
    307c:	21c4703a 	and	r2,r4,r7
    3080:	10000226 	beq	r2,zero,308c <_malloc_r+0x6dc>
    3084:	6013883a 	mov	r9,r12
    3088:	003ee106 	br	2c10 <_malloc_r+0x260>
    308c:	2109883a 	add	r4,r4,r4
    3090:	3904703a 	and	r2,r7,r4
    3094:	63000104 	addi	r12,r12,4
    3098:	103ffc26 	beq	r2,zero,308c <_malloc_r+0x6dc>
    309c:	6013883a 	mov	r9,r12
    30a0:	003edb06 	br	2c10 <_malloc_r+0x260>
    30a4:	00805504 	movi	r2,340
    30a8:	11000836 	bltu	r2,r4,30cc <_malloc_r+0x71c>
    30ac:	2804d3fa 	srli	r2,r5,15
    30b0:	11001dc4 	addi	r4,r2,119
    30b4:	200690fa 	slli	r3,r4,3
    30b8:	003f7306 	br	2e88 <_malloc_r+0x4d8>
    30bc:	0104303a 	nor	r2,zero,r4
    30c0:	388e703a 	and	r7,r7,r2
    30c4:	e1c00115 	stw	r7,4(fp)
    30c8:	003fe906 	br	3070 <_malloc_r+0x6c0>
    30cc:	00815504 	movi	r2,1364
    30d0:	1100032e 	bgeu	r2,r4,30e0 <_malloc_r+0x730>
    30d4:	01001f84 	movi	r4,126
    30d8:	00c0fc04 	movi	r3,1008
    30dc:	003f6a06 	br	2e88 <_malloc_r+0x4d8>
    30e0:	2804d4ba 	srli	r2,r5,18
    30e4:	11001f04 	addi	r4,r2,124
    30e8:	200690fa 	slli	r3,r4,3
    30ec:	003f6606 	br	2e88 <_malloc_r+0x4d8>

000030f0 <printf>:
    30f0:	defffb04 	addi	sp,sp,-20
    30f4:	dfc00115 	stw	ra,4(sp)
    30f8:	d9400215 	stw	r5,8(sp)
    30fc:	d9800315 	stw	r6,12(sp)
    3100:	d9c00415 	stw	r7,16(sp)
    3104:	00800074 	movhi	r2,1
    3108:	10835c04 	addi	r2,r2,3440
    310c:	10c00017 	ldw	r3,0(r2)
    3110:	200b883a 	mov	r5,r4
    3114:	d8800204 	addi	r2,sp,8
    3118:	19000217 	ldw	r4,8(r3)
    311c:	100d883a 	mov	r6,r2
    3120:	d8800015 	stw	r2,0(sp)
    3124:	00052040 	call	5204 <__vfprintf_internal>
    3128:	dfc00117 	ldw	ra,4(sp)
    312c:	dec00504 	addi	sp,sp,20
    3130:	f800283a 	ret

00003134 <_printf_r>:
    3134:	defffc04 	addi	sp,sp,-16
    3138:	dfc00115 	stw	ra,4(sp)
    313c:	d9800215 	stw	r6,8(sp)
    3140:	d9c00315 	stw	r7,12(sp)
    3144:	280d883a 	mov	r6,r5
    3148:	21400217 	ldw	r5,8(r4)
    314c:	d8c00204 	addi	r3,sp,8
    3150:	180f883a 	mov	r7,r3
    3154:	d8c00015 	stw	r3,0(sp)
    3158:	00033580 	call	3358 <___vfprintf_internal_r>
    315c:	dfc00117 	ldw	ra,4(sp)
    3160:	dec00404 	addi	sp,sp,16
    3164:	f800283a 	ret

00003168 <_puts_r>:
    3168:	defff604 	addi	sp,sp,-40
    316c:	dc400715 	stw	r17,28(sp)
    3170:	2023883a 	mov	r17,r4
    3174:	2809883a 	mov	r4,r5
    3178:	dfc00915 	stw	ra,36(sp)
    317c:	dcc00815 	stw	r19,32(sp)
    3180:	2827883a 	mov	r19,r5
    3184:	000328c0 	call	328c <strlen>
    3188:	89400217 	ldw	r5,8(r17)
    318c:	00c00074 	movhi	r3,1
    3190:	18fbf504 	addi	r3,r3,-4140
    3194:	01c00044 	movi	r7,1
    3198:	12000044 	addi	r8,r2,1
    319c:	d8c00515 	stw	r3,20(sp)
    31a0:	d9c00615 	stw	r7,24(sp)
    31a4:	d8c00304 	addi	r3,sp,12
    31a8:	01c00084 	movi	r7,2
    31ac:	8809883a 	mov	r4,r17
    31b0:	d80d883a 	mov	r6,sp
    31b4:	d8c00015 	stw	r3,0(sp)
    31b8:	dcc00315 	stw	r19,12(sp)
    31bc:	da000215 	stw	r8,8(sp)
    31c0:	d9c00115 	stw	r7,4(sp)
    31c4:	d8800415 	stw	r2,16(sp)
    31c8:	00076140 	call	7614 <__sfvwrite_r>
    31cc:	00ffffc4 	movi	r3,-1
    31d0:	10000626 	beq	r2,zero,31ec <_puts_r+0x84>
    31d4:	1805883a 	mov	r2,r3
    31d8:	dfc00917 	ldw	ra,36(sp)
    31dc:	dcc00817 	ldw	r19,32(sp)
    31e0:	dc400717 	ldw	r17,28(sp)
    31e4:	dec00a04 	addi	sp,sp,40
    31e8:	f800283a 	ret
    31ec:	00c00284 	movi	r3,10
    31f0:	1805883a 	mov	r2,r3
    31f4:	dfc00917 	ldw	ra,36(sp)
    31f8:	dcc00817 	ldw	r19,32(sp)
    31fc:	dc400717 	ldw	r17,28(sp)
    3200:	dec00a04 	addi	sp,sp,40
    3204:	f800283a 	ret

00003208 <puts>:
    3208:	00800074 	movhi	r2,1
    320c:	10835c04 	addi	r2,r2,3440
    3210:	200b883a 	mov	r5,r4
    3214:	11000017 	ldw	r4,0(r2)
    3218:	00031681 	jmpi	3168 <_puts_r>

0000321c <_sbrk_r>:
    321c:	defffd04 	addi	sp,sp,-12
    3220:	dc000015 	stw	r16,0(sp)
    3224:	04000074 	movhi	r16,1
    3228:	840a2204 	addi	r16,r16,10376
    322c:	dc400115 	stw	r17,4(sp)
    3230:	80000015 	stw	zero,0(r16)
    3234:	2023883a 	mov	r17,r4
    3238:	2809883a 	mov	r4,r5
    323c:	dfc00215 	stw	ra,8(sp)
    3240:	000cc200 	call	cc20 <sbrk>
    3244:	1007883a 	mov	r3,r2
    3248:	00bfffc4 	movi	r2,-1
    324c:	18800626 	beq	r3,r2,3268 <_sbrk_r+0x4c>
    3250:	1805883a 	mov	r2,r3
    3254:	dfc00217 	ldw	ra,8(sp)
    3258:	dc400117 	ldw	r17,4(sp)
    325c:	dc000017 	ldw	r16,0(sp)
    3260:	dec00304 	addi	sp,sp,12
    3264:	f800283a 	ret
    3268:	80800017 	ldw	r2,0(r16)
    326c:	103ff826 	beq	r2,zero,3250 <_sbrk_r+0x34>
    3270:	88800015 	stw	r2,0(r17)
    3274:	1805883a 	mov	r2,r3
    3278:	dfc00217 	ldw	ra,8(sp)
    327c:	dc400117 	ldw	r17,4(sp)
    3280:	dc000017 	ldw	r16,0(sp)
    3284:	dec00304 	addi	sp,sp,12
    3288:	f800283a 	ret

0000328c <strlen>:
    328c:	208000cc 	andi	r2,r4,3
    3290:	2011883a 	mov	r8,r4
    3294:	1000161e 	bne	r2,zero,32f0 <strlen+0x64>
    3298:	20c00017 	ldw	r3,0(r4)
    329c:	017fbff4 	movhi	r5,65279
    32a0:	297fbfc4 	addi	r5,r5,-257
    32a4:	01e02074 	movhi	r7,32897
    32a8:	39e02004 	addi	r7,r7,-32640
    32ac:	1945883a 	add	r2,r3,r5
    32b0:	11c4703a 	and	r2,r2,r7
    32b4:	00c6303a 	nor	r3,zero,r3
    32b8:	1886703a 	and	r3,r3,r2
    32bc:	18000c1e 	bne	r3,zero,32f0 <strlen+0x64>
    32c0:	280d883a 	mov	r6,r5
    32c4:	380b883a 	mov	r5,r7
    32c8:	21000104 	addi	r4,r4,4
    32cc:	20800017 	ldw	r2,0(r4)
    32d0:	1187883a 	add	r3,r2,r6
    32d4:	1946703a 	and	r3,r3,r5
    32d8:	0084303a 	nor	r2,zero,r2
    32dc:	10c4703a 	and	r2,r2,r3
    32e0:	103ff926 	beq	r2,zero,32c8 <strlen+0x3c>
    32e4:	20800007 	ldb	r2,0(r4)
    32e8:	10000326 	beq	r2,zero,32f8 <strlen+0x6c>
    32ec:	21000044 	addi	r4,r4,1
    32f0:	20800007 	ldb	r2,0(r4)
    32f4:	103ffd1e 	bne	r2,zero,32ec <strlen+0x60>
    32f8:	2205c83a 	sub	r2,r4,r8
    32fc:	f800283a 	ret

00003300 <__sprint_r>:
    3300:	30800217 	ldw	r2,8(r6)
    3304:	defffe04 	addi	sp,sp,-8
    3308:	dc000015 	stw	r16,0(sp)
    330c:	dfc00115 	stw	ra,4(sp)
    3310:	3021883a 	mov	r16,r6
    3314:	0007883a 	mov	r3,zero
    3318:	1000061e 	bne	r2,zero,3334 <__sprint_r+0x34>
    331c:	1805883a 	mov	r2,r3
    3320:	30000115 	stw	zero,4(r6)
    3324:	dfc00117 	ldw	ra,4(sp)
    3328:	dc000017 	ldw	r16,0(sp)
    332c:	dec00204 	addi	sp,sp,8
    3330:	f800283a 	ret
    3334:	00076140 	call	7614 <__sfvwrite_r>
    3338:	1007883a 	mov	r3,r2
    333c:	1805883a 	mov	r2,r3
    3340:	80000115 	stw	zero,4(r16)
    3344:	80000215 	stw	zero,8(r16)
    3348:	dfc00117 	ldw	ra,4(sp)
    334c:	dc000017 	ldw	r16,0(sp)
    3350:	dec00204 	addi	sp,sp,8
    3354:	f800283a 	ret

00003358 <___vfprintf_internal_r>:
    3358:	defea404 	addi	sp,sp,-1392
    335c:	dd815815 	stw	r22,1376(sp)
    3360:	dc015215 	stw	r16,1352(sp)
    3364:	d9c15115 	stw	r7,1348(sp)
    3368:	dfc15b15 	stw	ra,1388(sp)
    336c:	df015a15 	stw	fp,1384(sp)
    3370:	ddc15915 	stw	r23,1380(sp)
    3374:	dd415715 	stw	r21,1372(sp)
    3378:	dd015615 	stw	r20,1368(sp)
    337c:	dcc15515 	stw	r19,1364(sp)
    3380:	dc815415 	stw	r18,1360(sp)
    3384:	dc415315 	stw	r17,1356(sp)
    3388:	282d883a 	mov	r22,r5
    338c:	3021883a 	mov	r16,r6
    3390:	d9014f15 	stw	r4,1340(sp)
    3394:	0007c380 	call	7c38 <_localeconv_r>
    3398:	10800017 	ldw	r2,0(r2)
    339c:	d9c15117 	ldw	r7,1348(sp)
    33a0:	d8814915 	stw	r2,1316(sp)
    33a4:	d8814f17 	ldw	r2,1340(sp)
    33a8:	10000226 	beq	r2,zero,33b4 <___vfprintf_internal_r+0x5c>
    33ac:	10800e17 	ldw	r2,56(r2)
    33b0:	10020d26 	beq	r2,zero,3be8 <___vfprintf_internal_r+0x890>
    33b4:	b080030b 	ldhu	r2,12(r22)
    33b8:	1080020c 	andi	r2,r2,8
    33bc:	10020e26 	beq	r2,zero,3bf8 <___vfprintf_internal_r+0x8a0>
    33c0:	b0800417 	ldw	r2,16(r22)
    33c4:	10020c26 	beq	r2,zero,3bf8 <___vfprintf_internal_r+0x8a0>
    33c8:	b200030b 	ldhu	r8,12(r22)
    33cc:	00800284 	movi	r2,10
    33d0:	40c0068c 	andi	r3,r8,26
    33d4:	18802f1e 	bne	r3,r2,3494 <___vfprintf_internal_r+0x13c>
    33d8:	b080038f 	ldh	r2,14(r22)
    33dc:	10002d16 	blt	r2,zero,3494 <___vfprintf_internal_r+0x13c>
    33e0:	b240038b 	ldhu	r9,14(r22)
    33e4:	b2800717 	ldw	r10,28(r22)
    33e8:	b2c00917 	ldw	r11,36(r22)
    33ec:	d9014f17 	ldw	r4,1340(sp)
    33f0:	dc402904 	addi	r17,sp,164
    33f4:	d8804004 	addi	r2,sp,256
    33f8:	00c10004 	movi	r3,1024
    33fc:	423fff4c 	andi	r8,r8,65533
    3400:	800d883a 	mov	r6,r16
    3404:	880b883a 	mov	r5,r17
    3408:	da002c0d 	sth	r8,176(sp)
    340c:	da402c8d 	sth	r9,178(sp)
    3410:	da803015 	stw	r10,192(sp)
    3414:	dac03215 	stw	r11,200(sp)
    3418:	d8802d15 	stw	r2,180(sp)
    341c:	d8c02e15 	stw	r3,184(sp)
    3420:	d8802915 	stw	r2,164(sp)
    3424:	d8c02b15 	stw	r3,172(sp)
    3428:	d8002f15 	stw	zero,188(sp)
    342c:	00033580 	call	3358 <___vfprintf_internal_r>
    3430:	d8814b15 	stw	r2,1324(sp)
    3434:	10000416 	blt	r2,zero,3448 <___vfprintf_internal_r+0xf0>
    3438:	d9014f17 	ldw	r4,1340(sp)
    343c:	880b883a 	mov	r5,r17
    3440:	0006ce40 	call	6ce4 <_fflush_r>
    3444:	1002321e 	bne	r2,zero,3d10 <___vfprintf_internal_r+0x9b8>
    3448:	d8802c0b 	ldhu	r2,176(sp)
    344c:	1080100c 	andi	r2,r2,64
    3450:	10000326 	beq	r2,zero,3460 <___vfprintf_internal_r+0x108>
    3454:	b080030b 	ldhu	r2,12(r22)
    3458:	10801014 	ori	r2,r2,64
    345c:	b080030d 	sth	r2,12(r22)
    3460:	d8814b17 	ldw	r2,1324(sp)
    3464:	dfc15b17 	ldw	ra,1388(sp)
    3468:	df015a17 	ldw	fp,1384(sp)
    346c:	ddc15917 	ldw	r23,1380(sp)
    3470:	dd815817 	ldw	r22,1376(sp)
    3474:	dd415717 	ldw	r21,1372(sp)
    3478:	dd015617 	ldw	r20,1368(sp)
    347c:	dcc15517 	ldw	r19,1364(sp)
    3480:	dc815417 	ldw	r18,1360(sp)
    3484:	dc415317 	ldw	r17,1356(sp)
    3488:	dc015217 	ldw	r16,1352(sp)
    348c:	dec15c04 	addi	sp,sp,1392
    3490:	f800283a 	ret
    3494:	0005883a 	mov	r2,zero
    3498:	0007883a 	mov	r3,zero
    349c:	dd401904 	addi	r21,sp,100
    34a0:	d8814215 	stw	r2,1288(sp)
    34a4:	802f883a 	mov	r23,r16
    34a8:	d8c14315 	stw	r3,1292(sp)
    34ac:	d8014b15 	stw	zero,1324(sp)
    34b0:	d8014815 	stw	zero,1312(sp)
    34b4:	d8014415 	stw	zero,1296(sp)
    34b8:	d8014715 	stw	zero,1308(sp)
    34bc:	dd400c15 	stw	r21,48(sp)
    34c0:	d8000e15 	stw	zero,56(sp)
    34c4:	d8000d15 	stw	zero,52(sp)
    34c8:	b8800007 	ldb	r2,0(r23)
    34cc:	10001926 	beq	r2,zero,3534 <___vfprintf_internal_r+0x1dc>
    34d0:	00c00944 	movi	r3,37
    34d4:	10c01726 	beq	r2,r3,3534 <___vfprintf_internal_r+0x1dc>
    34d8:	b821883a 	mov	r16,r23
    34dc:	00000106 	br	34e4 <___vfprintf_internal_r+0x18c>
    34e0:	10c00326 	beq	r2,r3,34f0 <___vfprintf_internal_r+0x198>
    34e4:	84000044 	addi	r16,r16,1
    34e8:	80800007 	ldb	r2,0(r16)
    34ec:	103ffc1e 	bne	r2,zero,34e0 <___vfprintf_internal_r+0x188>
    34f0:	85e7c83a 	sub	r19,r16,r23
    34f4:	98000e26 	beq	r19,zero,3530 <___vfprintf_internal_r+0x1d8>
    34f8:	dc800e17 	ldw	r18,56(sp)
    34fc:	dc400d17 	ldw	r17,52(sp)
    3500:	008001c4 	movi	r2,7
    3504:	94e5883a 	add	r18,r18,r19
    3508:	8c400044 	addi	r17,r17,1
    350c:	adc00015 	stw	r23,0(r21)
    3510:	dc800e15 	stw	r18,56(sp)
    3514:	acc00115 	stw	r19,4(r21)
    3518:	dc400d15 	stw	r17,52(sp)
    351c:	14428b16 	blt	r2,r17,3f4c <___vfprintf_internal_r+0xbf4>
    3520:	ad400204 	addi	r21,r21,8
    3524:	d9014b17 	ldw	r4,1324(sp)
    3528:	24c9883a 	add	r4,r4,r19
    352c:	d9014b15 	stw	r4,1324(sp)
    3530:	802f883a 	mov	r23,r16
    3534:	b8800007 	ldb	r2,0(r23)
    3538:	10013c26 	beq	r2,zero,3a2c <___vfprintf_internal_r+0x6d4>
    353c:	bdc00044 	addi	r23,r23,1
    3540:	d8000405 	stb	zero,16(sp)
    3544:	b8c00007 	ldb	r3,0(r23)
    3548:	04ffffc4 	movi	r19,-1
    354c:	d8014c15 	stw	zero,1328(sp)
    3550:	d8014a15 	stw	zero,1320(sp)
    3554:	d8c14d15 	stw	r3,1332(sp)
    3558:	bdc00044 	addi	r23,r23,1
    355c:	d9414d17 	ldw	r5,1332(sp)
    3560:	00801604 	movi	r2,88
    3564:	28fff804 	addi	r3,r5,-32
    3568:	10c06036 	bltu	r2,r3,36ec <___vfprintf_internal_r+0x394>
    356c:	18c5883a 	add	r2,r3,r3
    3570:	1085883a 	add	r2,r2,r2
    3574:	00c00034 	movhi	r3,0
    3578:	18cd6204 	addi	r3,r3,13704
    357c:	10c5883a 	add	r2,r2,r3
    3580:	11000017 	ldw	r4,0(r2)
    3584:	2000683a 	jmp	r4
    3588:	000044fc 	xorhi	zero,zero,275
    358c:	000036ec 	andhi	zero,zero,219
    3590:	000036ec 	andhi	zero,zero,219
    3594:	000044e8 	cmpgeui	zero,zero,275
    3598:	000036ec 	andhi	zero,zero,219
    359c:	000036ec 	andhi	zero,zero,219
    35a0:	000036ec 	andhi	zero,zero,219
    35a4:	000036ec 	andhi	zero,zero,219
    35a8:	000036ec 	andhi	zero,zero,219
    35ac:	000036ec 	andhi	zero,zero,219
    35b0:	000042c8 	cmpgei	zero,zero,267
    35b4:	000044d8 	cmpnei	zero,zero,275
    35b8:	000036ec 	andhi	zero,zero,219
    35bc:	000042e0 	cmpeqi	zero,zero,267
    35c0:	00004574 	movhi	zero,277
    35c4:	000036ec 	andhi	zero,zero,219
    35c8:	00004560 	cmpeqi	zero,zero,277
    35cc:	00004528 	cmpgeui	zero,zero,276
    35d0:	00004528 	cmpgeui	zero,zero,276
    35d4:	00004528 	cmpgeui	zero,zero,276
    35d8:	00004528 	cmpgeui	zero,zero,276
    35dc:	00004528 	cmpgeui	zero,zero,276
    35e0:	00004528 	cmpgeui	zero,zero,276
    35e4:	00004528 	cmpgeui	zero,zero,276
    35e8:	00004528 	cmpgeui	zero,zero,276
    35ec:	00004528 	cmpgeui	zero,zero,276
    35f0:	000036ec 	andhi	zero,zero,219
    35f4:	000036ec 	andhi	zero,zero,219
    35f8:	000036ec 	andhi	zero,zero,219
    35fc:	000036ec 	andhi	zero,zero,219
    3600:	000036ec 	andhi	zero,zero,219
    3604:	000036ec 	andhi	zero,zero,219
    3608:	000036ec 	andhi	zero,zero,219
    360c:	000036ec 	andhi	zero,zero,219
    3610:	000036ec 	andhi	zero,zero,219
    3614:	000036ec 	andhi	zero,zero,219
    3618:	00003d44 	movi	zero,245
    361c:	000043b0 	cmpltui	zero,zero,270
    3620:	000036ec 	andhi	zero,zero,219
    3624:	000043b0 	cmpltui	zero,zero,270
    3628:	000036ec 	andhi	zero,zero,219
    362c:	000036ec 	andhi	zero,zero,219
    3630:	000036ec 	andhi	zero,zero,219
    3634:	000036ec 	andhi	zero,zero,219
    3638:	00004514 	movui	zero,276
    363c:	000036ec 	andhi	zero,zero,219
    3640:	000036ec 	andhi	zero,zero,219
    3644:	00003df8 	rdprs	zero,zero,247
    3648:	000036ec 	andhi	zero,zero,219
    364c:	000036ec 	andhi	zero,zero,219
    3650:	000036ec 	andhi	zero,zero,219
    3654:	000036ec 	andhi	zero,zero,219
    3658:	000036ec 	andhi	zero,zero,219
    365c:	00003e44 	movi	zero,249
    3660:	000036ec 	andhi	zero,zero,219
    3664:	000036ec 	andhi	zero,zero,219
    3668:	00004464 	muli	zero,zero,273
    366c:	000036ec 	andhi	zero,zero,219
    3670:	000036ec 	andhi	zero,zero,219
    3674:	000036ec 	andhi	zero,zero,219
    3678:	000036ec 	andhi	zero,zero,219
    367c:	000036ec 	andhi	zero,zero,219
    3680:	000036ec 	andhi	zero,zero,219
    3684:	000036ec 	andhi	zero,zero,219
    3688:	000036ec 	andhi	zero,zero,219
    368c:	000036ec 	andhi	zero,zero,219
    3690:	000036ec 	andhi	zero,zero,219
    3694:	00004438 	rdprs	zero,zero,272
    3698:	00003d50 	cmplti	zero,zero,245
    369c:	000043b0 	cmpltui	zero,zero,270
    36a0:	000043b0 	cmpltui	zero,zero,270
    36a4:	000043b0 	cmpltui	zero,zero,270
    36a8:	0000439c 	xori	zero,zero,270
    36ac:	00003d50 	cmplti	zero,zero,245
    36b0:	000036ec 	andhi	zero,zero,219
    36b4:	000036ec 	andhi	zero,zero,219
    36b8:	00004324 	muli	zero,zero,268
    36bc:	000036ec 	andhi	zero,zero,219
    36c0:	000042f4 	movhi	zero,267
    36c4:	00003e04 	movi	zero,248
    36c8:	00004354 	movui	zero,269
    36cc:	00004340 	call	434 <init_button+0x34>
    36d0:	000036ec 	andhi	zero,zero,219
    36d4:	000045d0 	cmplti	zero,zero,279
    36d8:	000036ec 	andhi	zero,zero,219
    36dc:	00003e50 	cmplti	zero,zero,249
    36e0:	000036ec 	andhi	zero,zero,219
    36e4:	000036ec 	andhi	zero,zero,219
    36e8:	000044c8 	cmpgei	zero,zero,275
    36ec:	d9014d17 	ldw	r4,1332(sp)
    36f0:	2000ce26 	beq	r4,zero,3a2c <___vfprintf_internal_r+0x6d4>
    36f4:	01400044 	movi	r5,1
    36f8:	d9800f04 	addi	r6,sp,60
    36fc:	d9c14015 	stw	r7,1280(sp)
    3700:	d9414515 	stw	r5,1300(sp)
    3704:	d9814115 	stw	r6,1284(sp)
    3708:	280f883a 	mov	r7,r5
    370c:	d9000f05 	stb	r4,60(sp)
    3710:	d8000405 	stb	zero,16(sp)
    3714:	d8014615 	stw	zero,1304(sp)
    3718:	d8c14c17 	ldw	r3,1328(sp)
    371c:	1880008c 	andi	r2,r3,2
    3720:	1005003a 	cmpeq	r2,r2,zero
    3724:	d8815015 	stw	r2,1344(sp)
    3728:	1000031e 	bne	r2,zero,3738 <___vfprintf_internal_r+0x3e0>
    372c:	d9014517 	ldw	r4,1300(sp)
    3730:	21000084 	addi	r4,r4,2
    3734:	d9014515 	stw	r4,1300(sp)
    3738:	d9414c17 	ldw	r5,1328(sp)
    373c:	2940210c 	andi	r5,r5,132
    3740:	d9414e15 	stw	r5,1336(sp)
    3744:	28002d1e 	bne	r5,zero,37fc <___vfprintf_internal_r+0x4a4>
    3748:	d9814a17 	ldw	r6,1320(sp)
    374c:	d8814517 	ldw	r2,1300(sp)
    3750:	30a1c83a 	sub	r16,r6,r2
    3754:	0400290e 	bge	zero,r16,37fc <___vfprintf_internal_r+0x4a4>
    3758:	00800404 	movi	r2,16
    375c:	1404580e 	bge	r2,r16,48c0 <___vfprintf_internal_r+0x1568>
    3760:	dc800e17 	ldw	r18,56(sp)
    3764:	dc400d17 	ldw	r17,52(sp)
    3768:	1027883a 	mov	r19,r2
    376c:	07000074 	movhi	fp,1
    3770:	e73c1184 	addi	fp,fp,-4026
    3774:	050001c4 	movi	r20,7
    3778:	00000306 	br	3788 <___vfprintf_internal_r+0x430>
    377c:	843ffc04 	addi	r16,r16,-16
    3780:	ad400204 	addi	r21,r21,8
    3784:	9c00130e 	bge	r19,r16,37d4 <___vfprintf_internal_r+0x47c>
    3788:	94800404 	addi	r18,r18,16
    378c:	8c400044 	addi	r17,r17,1
    3790:	af000015 	stw	fp,0(r21)
    3794:	acc00115 	stw	r19,4(r21)
    3798:	dc800e15 	stw	r18,56(sp)
    379c:	dc400d15 	stw	r17,52(sp)
    37a0:	a47ff60e 	bge	r20,r17,377c <___vfprintf_internal_r+0x424>
    37a4:	d9014f17 	ldw	r4,1340(sp)
    37a8:	b00b883a 	mov	r5,r22
    37ac:	d9800c04 	addi	r6,sp,48
    37b0:	d9c15115 	stw	r7,1348(sp)
    37b4:	00033000 	call	3300 <__sprint_r>
    37b8:	d9c15117 	ldw	r7,1348(sp)
    37bc:	10009e1e 	bne	r2,zero,3a38 <___vfprintf_internal_r+0x6e0>
    37c0:	843ffc04 	addi	r16,r16,-16
    37c4:	dc800e17 	ldw	r18,56(sp)
    37c8:	dc400d17 	ldw	r17,52(sp)
    37cc:	dd401904 	addi	r21,sp,100
    37d0:	9c3fed16 	blt	r19,r16,3788 <___vfprintf_internal_r+0x430>
    37d4:	9425883a 	add	r18,r18,r16
    37d8:	8c400044 	addi	r17,r17,1
    37dc:	008001c4 	movi	r2,7
    37e0:	af000015 	stw	fp,0(r21)
    37e4:	ac000115 	stw	r16,4(r21)
    37e8:	dc800e15 	stw	r18,56(sp)
    37ec:	dc400d15 	stw	r17,52(sp)
    37f0:	1441f516 	blt	r2,r17,3fc8 <___vfprintf_internal_r+0xc70>
    37f4:	ad400204 	addi	r21,r21,8
    37f8:	00000206 	br	3804 <___vfprintf_internal_r+0x4ac>
    37fc:	dc800e17 	ldw	r18,56(sp)
    3800:	dc400d17 	ldw	r17,52(sp)
    3804:	d8800407 	ldb	r2,16(sp)
    3808:	10000b26 	beq	r2,zero,3838 <___vfprintf_internal_r+0x4e0>
    380c:	00800044 	movi	r2,1
    3810:	94800044 	addi	r18,r18,1
    3814:	8c400044 	addi	r17,r17,1
    3818:	a8800115 	stw	r2,4(r21)
    381c:	d8c00404 	addi	r3,sp,16
    3820:	008001c4 	movi	r2,7
    3824:	a8c00015 	stw	r3,0(r21)
    3828:	dc800e15 	stw	r18,56(sp)
    382c:	dc400d15 	stw	r17,52(sp)
    3830:	1441da16 	blt	r2,r17,3f9c <___vfprintf_internal_r+0xc44>
    3834:	ad400204 	addi	r21,r21,8
    3838:	d9015017 	ldw	r4,1344(sp)
    383c:	20000b1e 	bne	r4,zero,386c <___vfprintf_internal_r+0x514>
    3840:	d8800444 	addi	r2,sp,17
    3844:	94800084 	addi	r18,r18,2
    3848:	8c400044 	addi	r17,r17,1
    384c:	a8800015 	stw	r2,0(r21)
    3850:	00c00084 	movi	r3,2
    3854:	008001c4 	movi	r2,7
    3858:	a8c00115 	stw	r3,4(r21)
    385c:	dc800e15 	stw	r18,56(sp)
    3860:	dc400d15 	stw	r17,52(sp)
    3864:	1441c216 	blt	r2,r17,3f70 <___vfprintf_internal_r+0xc18>
    3868:	ad400204 	addi	r21,r21,8
    386c:	d9414e17 	ldw	r5,1336(sp)
    3870:	00802004 	movi	r2,128
    3874:	2880b126 	beq	r5,r2,3b3c <___vfprintf_internal_r+0x7e4>
    3878:	d8c14617 	ldw	r3,1304(sp)
    387c:	19e1c83a 	sub	r16,r3,r7
    3880:	0400260e 	bge	zero,r16,391c <___vfprintf_internal_r+0x5c4>
    3884:	00800404 	movi	r2,16
    3888:	1403c90e 	bge	r2,r16,47b0 <___vfprintf_internal_r+0x1458>
    388c:	1027883a 	mov	r19,r2
    3890:	07000074 	movhi	fp,1
    3894:	e73c0d84 	addi	fp,fp,-4042
    3898:	050001c4 	movi	r20,7
    389c:	00000306 	br	38ac <___vfprintf_internal_r+0x554>
    38a0:	843ffc04 	addi	r16,r16,-16
    38a4:	ad400204 	addi	r21,r21,8
    38a8:	9c00130e 	bge	r19,r16,38f8 <___vfprintf_internal_r+0x5a0>
    38ac:	94800404 	addi	r18,r18,16
    38b0:	8c400044 	addi	r17,r17,1
    38b4:	af000015 	stw	fp,0(r21)
    38b8:	acc00115 	stw	r19,4(r21)
    38bc:	dc800e15 	stw	r18,56(sp)
    38c0:	dc400d15 	stw	r17,52(sp)
    38c4:	a47ff60e 	bge	r20,r17,38a0 <___vfprintf_internal_r+0x548>
    38c8:	d9014f17 	ldw	r4,1340(sp)
    38cc:	b00b883a 	mov	r5,r22
    38d0:	d9800c04 	addi	r6,sp,48
    38d4:	d9c15115 	stw	r7,1348(sp)
    38d8:	00033000 	call	3300 <__sprint_r>
    38dc:	d9c15117 	ldw	r7,1348(sp)
    38e0:	1000551e 	bne	r2,zero,3a38 <___vfprintf_internal_r+0x6e0>
    38e4:	843ffc04 	addi	r16,r16,-16
    38e8:	dc800e17 	ldw	r18,56(sp)
    38ec:	dc400d17 	ldw	r17,52(sp)
    38f0:	dd401904 	addi	r21,sp,100
    38f4:	9c3fed16 	blt	r19,r16,38ac <___vfprintf_internal_r+0x554>
    38f8:	9425883a 	add	r18,r18,r16
    38fc:	8c400044 	addi	r17,r17,1
    3900:	008001c4 	movi	r2,7
    3904:	af000015 	stw	fp,0(r21)
    3908:	ac000115 	stw	r16,4(r21)
    390c:	dc800e15 	stw	r18,56(sp)
    3910:	dc400d15 	stw	r17,52(sp)
    3914:	14418216 	blt	r2,r17,3f20 <___vfprintf_internal_r+0xbc8>
    3918:	ad400204 	addi	r21,r21,8
    391c:	d9014c17 	ldw	r4,1328(sp)
    3920:	2080400c 	andi	r2,r4,256
    3924:	10004a1e 	bne	r2,zero,3a50 <___vfprintf_internal_r+0x6f8>
    3928:	d9414117 	ldw	r5,1284(sp)
    392c:	91e5883a 	add	r18,r18,r7
    3930:	8c400044 	addi	r17,r17,1
    3934:	008001c4 	movi	r2,7
    3938:	a9400015 	stw	r5,0(r21)
    393c:	a9c00115 	stw	r7,4(r21)
    3940:	dc800e15 	stw	r18,56(sp)
    3944:	dc400d15 	stw	r17,52(sp)
    3948:	14416716 	blt	r2,r17,3ee8 <___vfprintf_internal_r+0xb90>
    394c:	a8c00204 	addi	r3,r21,8
    3950:	d9814c17 	ldw	r6,1328(sp)
    3954:	3080010c 	andi	r2,r6,4
    3958:	10002826 	beq	r2,zero,39fc <___vfprintf_internal_r+0x6a4>
    395c:	d8814a17 	ldw	r2,1320(sp)
    3960:	d9014517 	ldw	r4,1300(sp)
    3964:	1121c83a 	sub	r16,r2,r4
    3968:	0400240e 	bge	zero,r16,39fc <___vfprintf_internal_r+0x6a4>
    396c:	00800404 	movi	r2,16
    3970:	14044f0e 	bge	r2,r16,4ab0 <___vfprintf_internal_r+0x1758>
    3974:	dc400d17 	ldw	r17,52(sp)
    3978:	1027883a 	mov	r19,r2
    397c:	07000074 	movhi	fp,1
    3980:	e73c1184 	addi	fp,fp,-4026
    3984:	050001c4 	movi	r20,7
    3988:	00000306 	br	3998 <___vfprintf_internal_r+0x640>
    398c:	843ffc04 	addi	r16,r16,-16
    3990:	18c00204 	addi	r3,r3,8
    3994:	9c00110e 	bge	r19,r16,39dc <___vfprintf_internal_r+0x684>
    3998:	94800404 	addi	r18,r18,16
    399c:	8c400044 	addi	r17,r17,1
    39a0:	1f000015 	stw	fp,0(r3)
    39a4:	1cc00115 	stw	r19,4(r3)
    39a8:	dc800e15 	stw	r18,56(sp)
    39ac:	dc400d15 	stw	r17,52(sp)
    39b0:	a47ff60e 	bge	r20,r17,398c <___vfprintf_internal_r+0x634>
    39b4:	d9014f17 	ldw	r4,1340(sp)
    39b8:	b00b883a 	mov	r5,r22
    39bc:	d9800c04 	addi	r6,sp,48
    39c0:	00033000 	call	3300 <__sprint_r>
    39c4:	10001c1e 	bne	r2,zero,3a38 <___vfprintf_internal_r+0x6e0>
    39c8:	843ffc04 	addi	r16,r16,-16
    39cc:	dc800e17 	ldw	r18,56(sp)
    39d0:	dc400d17 	ldw	r17,52(sp)
    39d4:	d8c01904 	addi	r3,sp,100
    39d8:	9c3fef16 	blt	r19,r16,3998 <___vfprintf_internal_r+0x640>
    39dc:	9425883a 	add	r18,r18,r16
    39e0:	8c400044 	addi	r17,r17,1
    39e4:	008001c4 	movi	r2,7
    39e8:	1f000015 	stw	fp,0(r3)
    39ec:	1c000115 	stw	r16,4(r3)
    39f0:	dc800e15 	stw	r18,56(sp)
    39f4:	dc400d15 	stw	r17,52(sp)
    39f8:	1440cb16 	blt	r2,r17,3d28 <___vfprintf_internal_r+0x9d0>
    39fc:	d8814a17 	ldw	r2,1320(sp)
    3a00:	d9414517 	ldw	r5,1300(sp)
    3a04:	1140010e 	bge	r2,r5,3a0c <___vfprintf_internal_r+0x6b4>
    3a08:	2805883a 	mov	r2,r5
    3a0c:	d9814b17 	ldw	r6,1324(sp)
    3a10:	308d883a 	add	r6,r6,r2
    3a14:	d9814b15 	stw	r6,1324(sp)
    3a18:	90013b1e 	bne	r18,zero,3f08 <___vfprintf_internal_r+0xbb0>
    3a1c:	d9c14017 	ldw	r7,1280(sp)
    3a20:	dd401904 	addi	r21,sp,100
    3a24:	d8000d15 	stw	zero,52(sp)
    3a28:	003ea706 	br	34c8 <___vfprintf_internal_r+0x170>
    3a2c:	d8800e17 	ldw	r2,56(sp)
    3a30:	10053f1e 	bne	r2,zero,4f30 <___vfprintf_internal_r+0x1bd8>
    3a34:	d8000d15 	stw	zero,52(sp)
    3a38:	b080030b 	ldhu	r2,12(r22)
    3a3c:	1080100c 	andi	r2,r2,64
    3a40:	103e8726 	beq	r2,zero,3460 <___vfprintf_internal_r+0x108>
    3a44:	00bfffc4 	movi	r2,-1
    3a48:	d8814b15 	stw	r2,1324(sp)
    3a4c:	003e8406 	br	3460 <___vfprintf_internal_r+0x108>
    3a50:	d9814d17 	ldw	r6,1332(sp)
    3a54:	00801944 	movi	r2,101
    3a58:	11806e16 	blt	r2,r6,3c14 <___vfprintf_internal_r+0x8bc>
    3a5c:	d9414717 	ldw	r5,1308(sp)
    3a60:	00c00044 	movi	r3,1
    3a64:	1943430e 	bge	r3,r5,4774 <___vfprintf_internal_r+0x141c>
    3a68:	d8814117 	ldw	r2,1284(sp)
    3a6c:	94800044 	addi	r18,r18,1
    3a70:	8c400044 	addi	r17,r17,1
    3a74:	a8800015 	stw	r2,0(r21)
    3a78:	008001c4 	movi	r2,7
    3a7c:	a8c00115 	stw	r3,4(r21)
    3a80:	dc800e15 	stw	r18,56(sp)
    3a84:	dc400d15 	stw	r17,52(sp)
    3a88:	1441ca16 	blt	r2,r17,41b4 <___vfprintf_internal_r+0xe5c>
    3a8c:	a8c00204 	addi	r3,r21,8
    3a90:	d9014917 	ldw	r4,1316(sp)
    3a94:	00800044 	movi	r2,1
    3a98:	94800044 	addi	r18,r18,1
    3a9c:	8c400044 	addi	r17,r17,1
    3aa0:	18800115 	stw	r2,4(r3)
    3aa4:	008001c4 	movi	r2,7
    3aa8:	19000015 	stw	r4,0(r3)
    3aac:	dc800e15 	stw	r18,56(sp)
    3ab0:	dc400d15 	stw	r17,52(sp)
    3ab4:	1441b616 	blt	r2,r17,4190 <___vfprintf_internal_r+0xe38>
    3ab8:	1cc00204 	addi	r19,r3,8
    3abc:	d9014217 	ldw	r4,1288(sp)
    3ac0:	d9414317 	ldw	r5,1292(sp)
    3ac4:	000d883a 	mov	r6,zero
    3ac8:	000f883a 	mov	r7,zero
    3acc:	000b5ac0 	call	b5ac <__nedf2>
    3ad0:	10017426 	beq	r2,zero,40a4 <___vfprintf_internal_r+0xd4c>
    3ad4:	d9414717 	ldw	r5,1308(sp)
    3ad8:	d9814117 	ldw	r6,1284(sp)
    3adc:	8c400044 	addi	r17,r17,1
    3ae0:	2c85883a 	add	r2,r5,r18
    3ae4:	14bfffc4 	addi	r18,r2,-1
    3ae8:	28bfffc4 	addi	r2,r5,-1
    3aec:	30c00044 	addi	r3,r6,1
    3af0:	98800115 	stw	r2,4(r19)
    3af4:	008001c4 	movi	r2,7
    3af8:	98c00015 	stw	r3,0(r19)
    3afc:	dc800e15 	stw	r18,56(sp)
    3b00:	dc400d15 	stw	r17,52(sp)
    3b04:	14418e16 	blt	r2,r17,4140 <___vfprintf_internal_r+0xde8>
    3b08:	9cc00204 	addi	r19,r19,8
    3b0c:	d9414817 	ldw	r5,1312(sp)
    3b10:	d8800804 	addi	r2,sp,32
    3b14:	8c400044 	addi	r17,r17,1
    3b18:	9165883a 	add	r18,r18,r5
    3b1c:	98800015 	stw	r2,0(r19)
    3b20:	008001c4 	movi	r2,7
    3b24:	99400115 	stw	r5,4(r19)
    3b28:	dc800e15 	stw	r18,56(sp)
    3b2c:	dc400d15 	stw	r17,52(sp)
    3b30:	1440ed16 	blt	r2,r17,3ee8 <___vfprintf_internal_r+0xb90>
    3b34:	98c00204 	addi	r3,r19,8
    3b38:	003f8506 	br	3950 <___vfprintf_internal_r+0x5f8>
    3b3c:	d9814a17 	ldw	r6,1320(sp)
    3b40:	d8814517 	ldw	r2,1300(sp)
    3b44:	30a1c83a 	sub	r16,r6,r2
    3b48:	043f4b0e 	bge	zero,r16,3878 <___vfprintf_internal_r+0x520>
    3b4c:	00800404 	movi	r2,16
    3b50:	1404340e 	bge	r2,r16,4c24 <___vfprintf_internal_r+0x18cc>
    3b54:	1027883a 	mov	r19,r2
    3b58:	07000074 	movhi	fp,1
    3b5c:	e73c0d84 	addi	fp,fp,-4042
    3b60:	050001c4 	movi	r20,7
    3b64:	00000306 	br	3b74 <___vfprintf_internal_r+0x81c>
    3b68:	843ffc04 	addi	r16,r16,-16
    3b6c:	ad400204 	addi	r21,r21,8
    3b70:	9c00130e 	bge	r19,r16,3bc0 <___vfprintf_internal_r+0x868>
    3b74:	94800404 	addi	r18,r18,16
    3b78:	8c400044 	addi	r17,r17,1
    3b7c:	af000015 	stw	fp,0(r21)
    3b80:	acc00115 	stw	r19,4(r21)
    3b84:	dc800e15 	stw	r18,56(sp)
    3b88:	dc400d15 	stw	r17,52(sp)
    3b8c:	a47ff60e 	bge	r20,r17,3b68 <___vfprintf_internal_r+0x810>
    3b90:	d9014f17 	ldw	r4,1340(sp)
    3b94:	b00b883a 	mov	r5,r22
    3b98:	d9800c04 	addi	r6,sp,48
    3b9c:	d9c15115 	stw	r7,1348(sp)
    3ba0:	00033000 	call	3300 <__sprint_r>
    3ba4:	d9c15117 	ldw	r7,1348(sp)
    3ba8:	103fa31e 	bne	r2,zero,3a38 <___vfprintf_internal_r+0x6e0>
    3bac:	843ffc04 	addi	r16,r16,-16
    3bb0:	dc800e17 	ldw	r18,56(sp)
    3bb4:	dc400d17 	ldw	r17,52(sp)
    3bb8:	dd401904 	addi	r21,sp,100
    3bbc:	9c3fed16 	blt	r19,r16,3b74 <___vfprintf_internal_r+0x81c>
    3bc0:	9425883a 	add	r18,r18,r16
    3bc4:	8c400044 	addi	r17,r17,1
    3bc8:	008001c4 	movi	r2,7
    3bcc:	af000015 	stw	fp,0(r21)
    3bd0:	ac000115 	stw	r16,4(r21)
    3bd4:	dc800e15 	stw	r18,56(sp)
    3bd8:	dc400d15 	stw	r17,52(sp)
    3bdc:	14416116 	blt	r2,r17,4164 <___vfprintf_internal_r+0xe0c>
    3be0:	ad400204 	addi	r21,r21,8
    3be4:	003f2406 	br	3878 <___vfprintf_internal_r+0x520>
    3be8:	d9014f17 	ldw	r4,1340(sp)
    3bec:	0006f7c0 	call	6f7c <__sinit>
    3bf0:	d9c15117 	ldw	r7,1348(sp)
    3bf4:	003def06 	br	33b4 <___vfprintf_internal_r+0x5c>
    3bf8:	d9014f17 	ldw	r4,1340(sp)
    3bfc:	b00b883a 	mov	r5,r22
    3c00:	d9c15115 	stw	r7,1348(sp)
    3c04:	00052280 	call	5228 <__swsetup_r>
    3c08:	d9c15117 	ldw	r7,1348(sp)
    3c0c:	103dee26 	beq	r2,zero,33c8 <___vfprintf_internal_r+0x70>
    3c10:	003f8c06 	br	3a44 <___vfprintf_internal_r+0x6ec>
    3c14:	d9014217 	ldw	r4,1288(sp)
    3c18:	d9414317 	ldw	r5,1292(sp)
    3c1c:	000d883a 	mov	r6,zero
    3c20:	000f883a 	mov	r7,zero
    3c24:	000b5240 	call	b524 <__eqdf2>
    3c28:	1000f21e 	bne	r2,zero,3ff4 <___vfprintf_internal_r+0xc9c>
    3c2c:	00800074 	movhi	r2,1
    3c30:	10bc0d04 	addi	r2,r2,-4044
    3c34:	94800044 	addi	r18,r18,1
    3c38:	8c400044 	addi	r17,r17,1
    3c3c:	a8800015 	stw	r2,0(r21)
    3c40:	00c00044 	movi	r3,1
    3c44:	008001c4 	movi	r2,7
    3c48:	a8c00115 	stw	r3,4(r21)
    3c4c:	dc800e15 	stw	r18,56(sp)
    3c50:	dc400d15 	stw	r17,52(sp)
    3c54:	1442fa16 	blt	r2,r17,4840 <___vfprintf_internal_r+0x14e8>
    3c58:	a8c00204 	addi	r3,r21,8
    3c5c:	d8800517 	ldw	r2,20(sp)
    3c60:	d9014717 	ldw	r4,1308(sp)
    3c64:	11015c0e 	bge	r2,r4,41d8 <___vfprintf_internal_r+0xe80>
    3c68:	dc400d17 	ldw	r17,52(sp)
    3c6c:	d9814917 	ldw	r6,1316(sp)
    3c70:	00800044 	movi	r2,1
    3c74:	94800044 	addi	r18,r18,1
    3c78:	8c400044 	addi	r17,r17,1
    3c7c:	18800115 	stw	r2,4(r3)
    3c80:	008001c4 	movi	r2,7
    3c84:	19800015 	stw	r6,0(r3)
    3c88:	dc800e15 	stw	r18,56(sp)
    3c8c:	dc400d15 	stw	r17,52(sp)
    3c90:	14431016 	blt	r2,r17,48d4 <___vfprintf_internal_r+0x157c>
    3c94:	18c00204 	addi	r3,r3,8
    3c98:	d8814717 	ldw	r2,1308(sp)
    3c9c:	143fffc4 	addi	r16,r2,-1
    3ca0:	043f2b0e 	bge	zero,r16,3950 <___vfprintf_internal_r+0x5f8>
    3ca4:	00800404 	movi	r2,16
    3ca8:	1402a20e 	bge	r2,r16,4734 <___vfprintf_internal_r+0x13dc>
    3cac:	dc400d17 	ldw	r17,52(sp)
    3cb0:	1027883a 	mov	r19,r2
    3cb4:	07000074 	movhi	fp,1
    3cb8:	e73c0d84 	addi	fp,fp,-4042
    3cbc:	050001c4 	movi	r20,7
    3cc0:	00000306 	br	3cd0 <___vfprintf_internal_r+0x978>
    3cc4:	18c00204 	addi	r3,r3,8
    3cc8:	843ffc04 	addi	r16,r16,-16
    3ccc:	9c029c0e 	bge	r19,r16,4740 <___vfprintf_internal_r+0x13e8>
    3cd0:	94800404 	addi	r18,r18,16
    3cd4:	8c400044 	addi	r17,r17,1
    3cd8:	1f000015 	stw	fp,0(r3)
    3cdc:	1cc00115 	stw	r19,4(r3)
    3ce0:	dc800e15 	stw	r18,56(sp)
    3ce4:	dc400d15 	stw	r17,52(sp)
    3ce8:	a47ff60e 	bge	r20,r17,3cc4 <___vfprintf_internal_r+0x96c>
    3cec:	d9014f17 	ldw	r4,1340(sp)
    3cf0:	b00b883a 	mov	r5,r22
    3cf4:	d9800c04 	addi	r6,sp,48
    3cf8:	00033000 	call	3300 <__sprint_r>
    3cfc:	103f4e1e 	bne	r2,zero,3a38 <___vfprintf_internal_r+0x6e0>
    3d00:	dc800e17 	ldw	r18,56(sp)
    3d04:	dc400d17 	ldw	r17,52(sp)
    3d08:	d8c01904 	addi	r3,sp,100
    3d0c:	003fee06 	br	3cc8 <___vfprintf_internal_r+0x970>
    3d10:	d8802c0b 	ldhu	r2,176(sp)
    3d14:	00ffffc4 	movi	r3,-1
    3d18:	d8c14b15 	stw	r3,1324(sp)
    3d1c:	1080100c 	andi	r2,r2,64
    3d20:	103dcc1e 	bne	r2,zero,3454 <___vfprintf_internal_r+0xfc>
    3d24:	003dce06 	br	3460 <___vfprintf_internal_r+0x108>
    3d28:	d9014f17 	ldw	r4,1340(sp)
    3d2c:	b00b883a 	mov	r5,r22
    3d30:	d9800c04 	addi	r6,sp,48
    3d34:	00033000 	call	3300 <__sprint_r>
    3d38:	103f3f1e 	bne	r2,zero,3a38 <___vfprintf_internal_r+0x6e0>
    3d3c:	dc800e17 	ldw	r18,56(sp)
    3d40:	003f2e06 	br	39fc <___vfprintf_internal_r+0x6a4>
    3d44:	d9414c17 	ldw	r5,1328(sp)
    3d48:	29400414 	ori	r5,r5,16
    3d4c:	d9414c15 	stw	r5,1328(sp)
    3d50:	d9814c17 	ldw	r6,1328(sp)
    3d54:	3080080c 	andi	r2,r6,32
    3d58:	10014f1e 	bne	r2,zero,4298 <___vfprintf_internal_r+0xf40>
    3d5c:	d8c14c17 	ldw	r3,1328(sp)
    3d60:	1880040c 	andi	r2,r3,16
    3d64:	1002ea1e 	bne	r2,zero,4910 <___vfprintf_internal_r+0x15b8>
    3d68:	d9014c17 	ldw	r4,1328(sp)
    3d6c:	2080100c 	andi	r2,r4,64
    3d70:	1002e726 	beq	r2,zero,4910 <___vfprintf_internal_r+0x15b8>
    3d74:	3880000f 	ldh	r2,0(r7)
    3d78:	39c00104 	addi	r7,r7,4
    3d7c:	d9c14015 	stw	r7,1280(sp)
    3d80:	1023d7fa 	srai	r17,r2,31
    3d84:	1021883a 	mov	r16,r2
    3d88:	88037216 	blt	r17,zero,4b54 <___vfprintf_internal_r+0x17fc>
    3d8c:	01000044 	movi	r4,1
    3d90:	98000416 	blt	r19,zero,3da4 <___vfprintf_internal_r+0xa4c>
    3d94:	d8c14c17 	ldw	r3,1328(sp)
    3d98:	00bfdfc4 	movi	r2,-129
    3d9c:	1886703a 	and	r3,r3,r2
    3da0:	d8c14c15 	stw	r3,1328(sp)
    3da4:	8444b03a 	or	r2,r16,r17
    3da8:	1002261e 	bne	r2,zero,4644 <___vfprintf_internal_r+0x12ec>
    3dac:	9802251e 	bne	r19,zero,4644 <___vfprintf_internal_r+0x12ec>
    3db0:	20803fcc 	andi	r2,r4,255
    3db4:	10029b26 	beq	r2,zero,4824 <___vfprintf_internal_r+0x14cc>
    3db8:	d8c01904 	addi	r3,sp,100
    3dbc:	dd000f04 	addi	r20,sp,60
    3dc0:	d8c14115 	stw	r3,1284(sp)
    3dc4:	d8c14117 	ldw	r3,1284(sp)
    3dc8:	dcc14515 	stw	r19,1300(sp)
    3dcc:	a0c5c83a 	sub	r2,r20,r3
    3dd0:	11c00a04 	addi	r7,r2,40
    3dd4:	99c0010e 	bge	r19,r7,3ddc <___vfprintf_internal_r+0xa84>
    3dd8:	d9c14515 	stw	r7,1300(sp)
    3ddc:	dcc14615 	stw	r19,1304(sp)
    3de0:	d8800407 	ldb	r2,16(sp)
    3de4:	103e4c26 	beq	r2,zero,3718 <___vfprintf_internal_r+0x3c0>
    3de8:	d8814517 	ldw	r2,1300(sp)
    3dec:	10800044 	addi	r2,r2,1
    3df0:	d8814515 	stw	r2,1300(sp)
    3df4:	003e4806 	br	3718 <___vfprintf_internal_r+0x3c0>
    3df8:	d9814c17 	ldw	r6,1328(sp)
    3dfc:	31800414 	ori	r6,r6,16
    3e00:	d9814c15 	stw	r6,1328(sp)
    3e04:	d8c14c17 	ldw	r3,1328(sp)
    3e08:	1880080c 	andi	r2,r3,32
    3e0c:	1001271e 	bne	r2,zero,42ac <___vfprintf_internal_r+0xf54>
    3e10:	d9414c17 	ldw	r5,1328(sp)
    3e14:	2880040c 	andi	r2,r5,16
    3e18:	1002b61e 	bne	r2,zero,48f4 <___vfprintf_internal_r+0x159c>
    3e1c:	d9814c17 	ldw	r6,1328(sp)
    3e20:	3080100c 	andi	r2,r6,64
    3e24:	1002b326 	beq	r2,zero,48f4 <___vfprintf_internal_r+0x159c>
    3e28:	3c00000b 	ldhu	r16,0(r7)
    3e2c:	0009883a 	mov	r4,zero
    3e30:	39c00104 	addi	r7,r7,4
    3e34:	0023883a 	mov	r17,zero
    3e38:	d9c14015 	stw	r7,1280(sp)
    3e3c:	d8000405 	stb	zero,16(sp)
    3e40:	003fd306 	br	3d90 <___vfprintf_internal_r+0xa38>
    3e44:	d9014c17 	ldw	r4,1328(sp)
    3e48:	21000414 	ori	r4,r4,16
    3e4c:	d9014c15 	stw	r4,1328(sp)
    3e50:	d9414c17 	ldw	r5,1328(sp)
    3e54:	2880080c 	andi	r2,r5,32
    3e58:	1001081e 	bne	r2,zero,427c <___vfprintf_internal_r+0xf24>
    3e5c:	d8c14c17 	ldw	r3,1328(sp)
    3e60:	1880040c 	andi	r2,r3,16
    3e64:	1002b01e 	bne	r2,zero,4928 <___vfprintf_internal_r+0x15d0>
    3e68:	d9014c17 	ldw	r4,1328(sp)
    3e6c:	2080100c 	andi	r2,r4,64
    3e70:	1002ad26 	beq	r2,zero,4928 <___vfprintf_internal_r+0x15d0>
    3e74:	3c00000b 	ldhu	r16,0(r7)
    3e78:	01000044 	movi	r4,1
    3e7c:	39c00104 	addi	r7,r7,4
    3e80:	0023883a 	mov	r17,zero
    3e84:	d9c14015 	stw	r7,1280(sp)
    3e88:	d8000405 	stb	zero,16(sp)
    3e8c:	003fc006 	br	3d90 <___vfprintf_internal_r+0xa38>
    3e90:	d9014f17 	ldw	r4,1340(sp)
    3e94:	b00b883a 	mov	r5,r22
    3e98:	d9800c04 	addi	r6,sp,48
    3e9c:	00033000 	call	3300 <__sprint_r>
    3ea0:	103ee51e 	bne	r2,zero,3a38 <___vfprintf_internal_r+0x6e0>
    3ea4:	dc800e17 	ldw	r18,56(sp)
    3ea8:	d8c01904 	addi	r3,sp,100
    3eac:	d9814c17 	ldw	r6,1328(sp)
    3eb0:	3080004c 	andi	r2,r6,1
    3eb4:	1005003a 	cmpeq	r2,r2,zero
    3eb8:	103ea51e 	bne	r2,zero,3950 <___vfprintf_internal_r+0x5f8>
    3ebc:	00800044 	movi	r2,1
    3ec0:	dc400d17 	ldw	r17,52(sp)
    3ec4:	18800115 	stw	r2,4(r3)
    3ec8:	d8814917 	ldw	r2,1316(sp)
    3ecc:	94800044 	addi	r18,r18,1
    3ed0:	8c400044 	addi	r17,r17,1
    3ed4:	18800015 	stw	r2,0(r3)
    3ed8:	008001c4 	movi	r2,7
    3edc:	dc800e15 	stw	r18,56(sp)
    3ee0:	dc400d15 	stw	r17,52(sp)
    3ee4:	14421e0e 	bge	r2,r17,4760 <___vfprintf_internal_r+0x1408>
    3ee8:	d9014f17 	ldw	r4,1340(sp)
    3eec:	b00b883a 	mov	r5,r22
    3ef0:	d9800c04 	addi	r6,sp,48
    3ef4:	00033000 	call	3300 <__sprint_r>
    3ef8:	103ecf1e 	bne	r2,zero,3a38 <___vfprintf_internal_r+0x6e0>
    3efc:	dc800e17 	ldw	r18,56(sp)
    3f00:	d8c01904 	addi	r3,sp,100
    3f04:	003e9206 	br	3950 <___vfprintf_internal_r+0x5f8>
    3f08:	d9014f17 	ldw	r4,1340(sp)
    3f0c:	b00b883a 	mov	r5,r22
    3f10:	d9800c04 	addi	r6,sp,48
    3f14:	00033000 	call	3300 <__sprint_r>
    3f18:	103ec026 	beq	r2,zero,3a1c <___vfprintf_internal_r+0x6c4>
    3f1c:	003ec606 	br	3a38 <___vfprintf_internal_r+0x6e0>
    3f20:	d9014f17 	ldw	r4,1340(sp)
    3f24:	b00b883a 	mov	r5,r22
    3f28:	d9800c04 	addi	r6,sp,48
    3f2c:	d9c15115 	stw	r7,1348(sp)
    3f30:	00033000 	call	3300 <__sprint_r>
    3f34:	d9c15117 	ldw	r7,1348(sp)
    3f38:	103ebf1e 	bne	r2,zero,3a38 <___vfprintf_internal_r+0x6e0>
    3f3c:	dc800e17 	ldw	r18,56(sp)
    3f40:	dc400d17 	ldw	r17,52(sp)
    3f44:	dd401904 	addi	r21,sp,100
    3f48:	003e7406 	br	391c <___vfprintf_internal_r+0x5c4>
    3f4c:	d9014f17 	ldw	r4,1340(sp)
    3f50:	b00b883a 	mov	r5,r22
    3f54:	d9800c04 	addi	r6,sp,48
    3f58:	d9c15115 	stw	r7,1348(sp)
    3f5c:	00033000 	call	3300 <__sprint_r>
    3f60:	d9c15117 	ldw	r7,1348(sp)
    3f64:	103eb41e 	bne	r2,zero,3a38 <___vfprintf_internal_r+0x6e0>
    3f68:	dd401904 	addi	r21,sp,100
    3f6c:	003d6d06 	br	3524 <___vfprintf_internal_r+0x1cc>
    3f70:	d9014f17 	ldw	r4,1340(sp)
    3f74:	b00b883a 	mov	r5,r22
    3f78:	d9800c04 	addi	r6,sp,48
    3f7c:	d9c15115 	stw	r7,1348(sp)
    3f80:	00033000 	call	3300 <__sprint_r>
    3f84:	d9c15117 	ldw	r7,1348(sp)
    3f88:	103eab1e 	bne	r2,zero,3a38 <___vfprintf_internal_r+0x6e0>
    3f8c:	dc800e17 	ldw	r18,56(sp)
    3f90:	dc400d17 	ldw	r17,52(sp)
    3f94:	dd401904 	addi	r21,sp,100
    3f98:	003e3406 	br	386c <___vfprintf_internal_r+0x514>
    3f9c:	d9014f17 	ldw	r4,1340(sp)
    3fa0:	b00b883a 	mov	r5,r22
    3fa4:	d9800c04 	addi	r6,sp,48
    3fa8:	d9c15115 	stw	r7,1348(sp)
    3fac:	00033000 	call	3300 <__sprint_r>
    3fb0:	d9c15117 	ldw	r7,1348(sp)
    3fb4:	103ea01e 	bne	r2,zero,3a38 <___vfprintf_internal_r+0x6e0>
    3fb8:	dc800e17 	ldw	r18,56(sp)
    3fbc:	dc400d17 	ldw	r17,52(sp)
    3fc0:	dd401904 	addi	r21,sp,100
    3fc4:	003e1c06 	br	3838 <___vfprintf_internal_r+0x4e0>
    3fc8:	d9014f17 	ldw	r4,1340(sp)
    3fcc:	b00b883a 	mov	r5,r22
    3fd0:	d9800c04 	addi	r6,sp,48
    3fd4:	d9c15115 	stw	r7,1348(sp)
    3fd8:	00033000 	call	3300 <__sprint_r>
    3fdc:	d9c15117 	ldw	r7,1348(sp)
    3fe0:	103e951e 	bne	r2,zero,3a38 <___vfprintf_internal_r+0x6e0>
    3fe4:	dc800e17 	ldw	r18,56(sp)
    3fe8:	dc400d17 	ldw	r17,52(sp)
    3fec:	dd401904 	addi	r21,sp,100
    3ff0:	003e0406 	br	3804 <___vfprintf_internal_r+0x4ac>
    3ff4:	d9000517 	ldw	r4,20(sp)
    3ff8:	0102520e 	bge	zero,r4,4944 <___vfprintf_internal_r+0x15ec>
    3ffc:	d9814717 	ldw	r6,1308(sp)
    4000:	21807a16 	blt	r4,r6,41ec <___vfprintf_internal_r+0xe94>
    4004:	d8814117 	ldw	r2,1284(sp)
    4008:	91a5883a 	add	r18,r18,r6
    400c:	8c400044 	addi	r17,r17,1
    4010:	a8800015 	stw	r2,0(r21)
    4014:	008001c4 	movi	r2,7
    4018:	a9800115 	stw	r6,4(r21)
    401c:	dc800e15 	stw	r18,56(sp)
    4020:	dc400d15 	stw	r17,52(sp)
    4024:	1442f616 	blt	r2,r17,4c00 <___vfprintf_internal_r+0x18a8>
    4028:	a8c00204 	addi	r3,r21,8
    402c:	d9414717 	ldw	r5,1308(sp)
    4030:	2161c83a 	sub	r16,r4,r5
    4034:	043f9d0e 	bge	zero,r16,3eac <___vfprintf_internal_r+0xb54>
    4038:	00800404 	movi	r2,16
    403c:	1402130e 	bge	r2,r16,488c <___vfprintf_internal_r+0x1534>
    4040:	dc400d17 	ldw	r17,52(sp)
    4044:	1027883a 	mov	r19,r2
    4048:	07000074 	movhi	fp,1
    404c:	e73c0d84 	addi	fp,fp,-4042
    4050:	050001c4 	movi	r20,7
    4054:	00000306 	br	4064 <___vfprintf_internal_r+0xd0c>
    4058:	18c00204 	addi	r3,r3,8
    405c:	843ffc04 	addi	r16,r16,-16
    4060:	9c020d0e 	bge	r19,r16,4898 <___vfprintf_internal_r+0x1540>
    4064:	94800404 	addi	r18,r18,16
    4068:	8c400044 	addi	r17,r17,1
    406c:	1f000015 	stw	fp,0(r3)
    4070:	1cc00115 	stw	r19,4(r3)
    4074:	dc800e15 	stw	r18,56(sp)
    4078:	dc400d15 	stw	r17,52(sp)
    407c:	a47ff60e 	bge	r20,r17,4058 <___vfprintf_internal_r+0xd00>
    4080:	d9014f17 	ldw	r4,1340(sp)
    4084:	b00b883a 	mov	r5,r22
    4088:	d9800c04 	addi	r6,sp,48
    408c:	00033000 	call	3300 <__sprint_r>
    4090:	103e691e 	bne	r2,zero,3a38 <___vfprintf_internal_r+0x6e0>
    4094:	dc800e17 	ldw	r18,56(sp)
    4098:	dc400d17 	ldw	r17,52(sp)
    409c:	d8c01904 	addi	r3,sp,100
    40a0:	003fee06 	br	405c <___vfprintf_internal_r+0xd04>
    40a4:	d8814717 	ldw	r2,1308(sp)
    40a8:	143fffc4 	addi	r16,r2,-1
    40ac:	043e970e 	bge	zero,r16,3b0c <___vfprintf_internal_r+0x7b4>
    40b0:	00800404 	movi	r2,16
    40b4:	1400180e 	bge	r2,r16,4118 <___vfprintf_internal_r+0xdc0>
    40b8:	1029883a 	mov	r20,r2
    40bc:	07000074 	movhi	fp,1
    40c0:	e73c0d84 	addi	fp,fp,-4042
    40c4:	054001c4 	movi	r21,7
    40c8:	00000306 	br	40d8 <___vfprintf_internal_r+0xd80>
    40cc:	9cc00204 	addi	r19,r19,8
    40d0:	843ffc04 	addi	r16,r16,-16
    40d4:	a400120e 	bge	r20,r16,4120 <___vfprintf_internal_r+0xdc8>
    40d8:	94800404 	addi	r18,r18,16
    40dc:	8c400044 	addi	r17,r17,1
    40e0:	9f000015 	stw	fp,0(r19)
    40e4:	9d000115 	stw	r20,4(r19)
    40e8:	dc800e15 	stw	r18,56(sp)
    40ec:	dc400d15 	stw	r17,52(sp)
    40f0:	ac7ff60e 	bge	r21,r17,40cc <___vfprintf_internal_r+0xd74>
    40f4:	d9014f17 	ldw	r4,1340(sp)
    40f8:	b00b883a 	mov	r5,r22
    40fc:	d9800c04 	addi	r6,sp,48
    4100:	00033000 	call	3300 <__sprint_r>
    4104:	103e4c1e 	bne	r2,zero,3a38 <___vfprintf_internal_r+0x6e0>
    4108:	dc800e17 	ldw	r18,56(sp)
    410c:	dc400d17 	ldw	r17,52(sp)
    4110:	dcc01904 	addi	r19,sp,100
    4114:	003fee06 	br	40d0 <___vfprintf_internal_r+0xd78>
    4118:	07000074 	movhi	fp,1
    411c:	e73c0d84 	addi	fp,fp,-4042
    4120:	9425883a 	add	r18,r18,r16
    4124:	8c400044 	addi	r17,r17,1
    4128:	008001c4 	movi	r2,7
    412c:	9f000015 	stw	fp,0(r19)
    4130:	9c000115 	stw	r16,4(r19)
    4134:	dc800e15 	stw	r18,56(sp)
    4138:	dc400d15 	stw	r17,52(sp)
    413c:	147e720e 	bge	r2,r17,3b08 <___vfprintf_internal_r+0x7b0>
    4140:	d9014f17 	ldw	r4,1340(sp)
    4144:	b00b883a 	mov	r5,r22
    4148:	d9800c04 	addi	r6,sp,48
    414c:	00033000 	call	3300 <__sprint_r>
    4150:	103e391e 	bne	r2,zero,3a38 <___vfprintf_internal_r+0x6e0>
    4154:	dc800e17 	ldw	r18,56(sp)
    4158:	dc400d17 	ldw	r17,52(sp)
    415c:	dcc01904 	addi	r19,sp,100
    4160:	003e6a06 	br	3b0c <___vfprintf_internal_r+0x7b4>
    4164:	d9014f17 	ldw	r4,1340(sp)
    4168:	b00b883a 	mov	r5,r22
    416c:	d9800c04 	addi	r6,sp,48
    4170:	d9c15115 	stw	r7,1348(sp)
    4174:	00033000 	call	3300 <__sprint_r>
    4178:	d9c15117 	ldw	r7,1348(sp)
    417c:	103e2e1e 	bne	r2,zero,3a38 <___vfprintf_internal_r+0x6e0>
    4180:	dc800e17 	ldw	r18,56(sp)
    4184:	dc400d17 	ldw	r17,52(sp)
    4188:	dd401904 	addi	r21,sp,100
    418c:	003dba06 	br	3878 <___vfprintf_internal_r+0x520>
    4190:	d9014f17 	ldw	r4,1340(sp)
    4194:	b00b883a 	mov	r5,r22
    4198:	d9800c04 	addi	r6,sp,48
    419c:	00033000 	call	3300 <__sprint_r>
    41a0:	103e251e 	bne	r2,zero,3a38 <___vfprintf_internal_r+0x6e0>
    41a4:	dc800e17 	ldw	r18,56(sp)
    41a8:	dc400d17 	ldw	r17,52(sp)
    41ac:	dcc01904 	addi	r19,sp,100
    41b0:	003e4206 	br	3abc <___vfprintf_internal_r+0x764>
    41b4:	d9014f17 	ldw	r4,1340(sp)
    41b8:	b00b883a 	mov	r5,r22
    41bc:	d9800c04 	addi	r6,sp,48
    41c0:	00033000 	call	3300 <__sprint_r>
    41c4:	103e1c1e 	bne	r2,zero,3a38 <___vfprintf_internal_r+0x6e0>
    41c8:	dc800e17 	ldw	r18,56(sp)
    41cc:	dc400d17 	ldw	r17,52(sp)
    41d0:	d8c01904 	addi	r3,sp,100
    41d4:	003e2e06 	br	3a90 <___vfprintf_internal_r+0x738>
    41d8:	d9414c17 	ldw	r5,1328(sp)
    41dc:	2880004c 	andi	r2,r5,1
    41e0:	1005003a 	cmpeq	r2,r2,zero
    41e4:	103dda1e 	bne	r2,zero,3950 <___vfprintf_internal_r+0x5f8>
    41e8:	003e9f06 	br	3c68 <___vfprintf_internal_r+0x910>
    41ec:	d8c14117 	ldw	r3,1284(sp)
    41f0:	9125883a 	add	r18,r18,r4
    41f4:	8c400044 	addi	r17,r17,1
    41f8:	008001c4 	movi	r2,7
    41fc:	a8c00015 	stw	r3,0(r21)
    4200:	a9000115 	stw	r4,4(r21)
    4204:	dc800e15 	stw	r18,56(sp)
    4208:	dc400d15 	stw	r17,52(sp)
    420c:	14426616 	blt	r2,r17,4ba8 <___vfprintf_internal_r+0x1850>
    4210:	a8c00204 	addi	r3,r21,8
    4214:	d9414917 	ldw	r5,1316(sp)
    4218:	00800044 	movi	r2,1
    421c:	94800044 	addi	r18,r18,1
    4220:	8c400044 	addi	r17,r17,1
    4224:	18800115 	stw	r2,4(r3)
    4228:	008001c4 	movi	r2,7
    422c:	19400015 	stw	r5,0(r3)
    4230:	dc800e15 	stw	r18,56(sp)
    4234:	dc400d15 	stw	r17,52(sp)
    4238:	2021883a 	mov	r16,r4
    423c:	14425016 	blt	r2,r17,4b80 <___vfprintf_internal_r+0x1828>
    4240:	19400204 	addi	r5,r3,8
    4244:	d9814717 	ldw	r6,1308(sp)
    4248:	8c400044 	addi	r17,r17,1
    424c:	dc400d15 	stw	r17,52(sp)
    4250:	3107c83a 	sub	r3,r6,r4
    4254:	d9014117 	ldw	r4,1284(sp)
    4258:	90e5883a 	add	r18,r18,r3
    425c:	28c00115 	stw	r3,4(r5)
    4260:	8105883a 	add	r2,r16,r4
    4264:	28800015 	stw	r2,0(r5)
    4268:	008001c4 	movi	r2,7
    426c:	dc800e15 	stw	r18,56(sp)
    4270:	147f1d16 	blt	r2,r17,3ee8 <___vfprintf_internal_r+0xb90>
    4274:	28c00204 	addi	r3,r5,8
    4278:	003db506 	br	3950 <___vfprintf_internal_r+0x5f8>
    427c:	3c000017 	ldw	r16,0(r7)
    4280:	3c400117 	ldw	r17,4(r7)
    4284:	39800204 	addi	r6,r7,8
    4288:	01000044 	movi	r4,1
    428c:	d9814015 	stw	r6,1280(sp)
    4290:	d8000405 	stb	zero,16(sp)
    4294:	003ebe06 	br	3d90 <___vfprintf_internal_r+0xa38>
    4298:	3c000017 	ldw	r16,0(r7)
    429c:	3c400117 	ldw	r17,4(r7)
    42a0:	38800204 	addi	r2,r7,8
    42a4:	d8814015 	stw	r2,1280(sp)
    42a8:	003eb706 	br	3d88 <___vfprintf_internal_r+0xa30>
    42ac:	3c000017 	ldw	r16,0(r7)
    42b0:	3c400117 	ldw	r17,4(r7)
    42b4:	39000204 	addi	r4,r7,8
    42b8:	d9014015 	stw	r4,1280(sp)
    42bc:	0009883a 	mov	r4,zero
    42c0:	d8000405 	stb	zero,16(sp)
    42c4:	003eb206 	br	3d90 <___vfprintf_internal_r+0xa38>
    42c8:	38c00017 	ldw	r3,0(r7)
    42cc:	39c00104 	addi	r7,r7,4
    42d0:	d8c14a15 	stw	r3,1320(sp)
    42d4:	1800d10e 	bge	r3,zero,461c <___vfprintf_internal_r+0x12c4>
    42d8:	00c7c83a 	sub	r3,zero,r3
    42dc:	d8c14a15 	stw	r3,1320(sp)
    42e0:	d9014c17 	ldw	r4,1328(sp)
    42e4:	b8c00007 	ldb	r3,0(r23)
    42e8:	21000114 	ori	r4,r4,4
    42ec:	d9014c15 	stw	r4,1328(sp)
    42f0:	003c9806 	br	3554 <___vfprintf_internal_r+0x1fc>
    42f4:	d9814c17 	ldw	r6,1328(sp)
    42f8:	3080080c 	andi	r2,r6,32
    42fc:	1001f026 	beq	r2,zero,4ac0 <___vfprintf_internal_r+0x1768>
    4300:	d9014b17 	ldw	r4,1324(sp)
    4304:	38800017 	ldw	r2,0(r7)
    4308:	39c00104 	addi	r7,r7,4
    430c:	d9c14015 	stw	r7,1280(sp)
    4310:	2007d7fa 	srai	r3,r4,31
    4314:	d9c14017 	ldw	r7,1280(sp)
    4318:	11000015 	stw	r4,0(r2)
    431c:	10c00115 	stw	r3,4(r2)
    4320:	003c6906 	br	34c8 <___vfprintf_internal_r+0x170>
    4324:	b8c00007 	ldb	r3,0(r23)
    4328:	00801b04 	movi	r2,108
    432c:	18824f26 	beq	r3,r2,4c6c <___vfprintf_internal_r+0x1914>
    4330:	d9414c17 	ldw	r5,1328(sp)
    4334:	29400414 	ori	r5,r5,16
    4338:	d9414c15 	stw	r5,1328(sp)
    433c:	003c8506 	br	3554 <___vfprintf_internal_r+0x1fc>
    4340:	d9814c17 	ldw	r6,1328(sp)
    4344:	b8c00007 	ldb	r3,0(r23)
    4348:	31800814 	ori	r6,r6,32
    434c:	d9814c15 	stw	r6,1328(sp)
    4350:	003c8006 	br	3554 <___vfprintf_internal_r+0x1fc>
    4354:	d8814c17 	ldw	r2,1328(sp)
    4358:	3c000017 	ldw	r16,0(r7)
    435c:	00c01e04 	movi	r3,120
    4360:	10800094 	ori	r2,r2,2
    4364:	d8814c15 	stw	r2,1328(sp)
    4368:	39c00104 	addi	r7,r7,4
    436c:	01400074 	movhi	r5,1
    4370:	297bf604 	addi	r5,r5,-4136
    4374:	00800c04 	movi	r2,48
    4378:	0023883a 	mov	r17,zero
    437c:	01000084 	movi	r4,2
    4380:	d9c14015 	stw	r7,1280(sp)
    4384:	d8c14d15 	stw	r3,1332(sp)
    4388:	d9414415 	stw	r5,1296(sp)
    438c:	d8800445 	stb	r2,17(sp)
    4390:	d8c00485 	stb	r3,18(sp)
    4394:	d8000405 	stb	zero,16(sp)
    4398:	003e7d06 	br	3d90 <___vfprintf_internal_r+0xa38>
    439c:	d8814c17 	ldw	r2,1328(sp)
    43a0:	b8c00007 	ldb	r3,0(r23)
    43a4:	10801014 	ori	r2,r2,64
    43a8:	d8814c15 	stw	r2,1328(sp)
    43ac:	003c6906 	br	3554 <___vfprintf_internal_r+0x1fc>
    43b0:	d9414c17 	ldw	r5,1328(sp)
    43b4:	2880020c 	andi	r2,r5,8
    43b8:	1001df26 	beq	r2,zero,4b38 <___vfprintf_internal_r+0x17e0>
    43bc:	39800017 	ldw	r6,0(r7)
    43c0:	38800204 	addi	r2,r7,8
    43c4:	d8814015 	stw	r2,1280(sp)
    43c8:	d9814215 	stw	r6,1288(sp)
    43cc:	39c00117 	ldw	r7,4(r7)
    43d0:	d9c14315 	stw	r7,1292(sp)
    43d4:	d9014217 	ldw	r4,1288(sp)
    43d8:	d9414317 	ldw	r5,1292(sp)
    43dc:	000976c0 	call	976c <__isinfd>
    43e0:	10021726 	beq	r2,zero,4c40 <___vfprintf_internal_r+0x18e8>
    43e4:	d9014217 	ldw	r4,1288(sp)
    43e8:	d9414317 	ldw	r5,1292(sp)
    43ec:	000d883a 	mov	r6,zero
    43f0:	000f883a 	mov	r7,zero
    43f4:	000b7440 	call	b744 <__ltdf2>
    43f8:	1002ca16 	blt	r2,zero,4f24 <___vfprintf_internal_r+0x1bcc>
    43fc:	d9414d17 	ldw	r5,1332(sp)
    4400:	008011c4 	movi	r2,71
    4404:	11420a16 	blt	r2,r5,4c30 <___vfprintf_internal_r+0x18d8>
    4408:	01800074 	movhi	r6,1
    440c:	31bbfb04 	addi	r6,r6,-4116
    4410:	d9814115 	stw	r6,1284(sp)
    4414:	d9014c17 	ldw	r4,1328(sp)
    4418:	00c000c4 	movi	r3,3
    441c:	00bfdfc4 	movi	r2,-129
    4420:	2088703a 	and	r4,r4,r2
    4424:	180f883a 	mov	r7,r3
    4428:	d8c14515 	stw	r3,1300(sp)
    442c:	d9014c15 	stw	r4,1328(sp)
    4430:	d8014615 	stw	zero,1304(sp)
    4434:	003e6a06 	br	3de0 <___vfprintf_internal_r+0xa88>
    4438:	38800017 	ldw	r2,0(r7)
    443c:	00c00044 	movi	r3,1
    4440:	39c00104 	addi	r7,r7,4
    4444:	d9c14015 	stw	r7,1280(sp)
    4448:	d9000f04 	addi	r4,sp,60
    444c:	180f883a 	mov	r7,r3
    4450:	d8c14515 	stw	r3,1300(sp)
    4454:	d9014115 	stw	r4,1284(sp)
    4458:	d8800f05 	stb	r2,60(sp)
    445c:	d8000405 	stb	zero,16(sp)
    4460:	003cac06 	br	3714 <___vfprintf_internal_r+0x3bc>
    4464:	01400074 	movhi	r5,1
    4468:	297c0104 	addi	r5,r5,-4092
    446c:	d9414415 	stw	r5,1296(sp)
    4470:	d9814c17 	ldw	r6,1328(sp)
    4474:	3080080c 	andi	r2,r6,32
    4478:	1000f926 	beq	r2,zero,4860 <___vfprintf_internal_r+0x1508>
    447c:	3c000017 	ldw	r16,0(r7)
    4480:	3c400117 	ldw	r17,4(r7)
    4484:	38800204 	addi	r2,r7,8
    4488:	d8814015 	stw	r2,1280(sp)
    448c:	d9414c17 	ldw	r5,1328(sp)
    4490:	2880004c 	andi	r2,r5,1
    4494:	1005003a 	cmpeq	r2,r2,zero
    4498:	1000b31e 	bne	r2,zero,4768 <___vfprintf_internal_r+0x1410>
    449c:	8444b03a 	or	r2,r16,r17
    44a0:	1000b126 	beq	r2,zero,4768 <___vfprintf_internal_r+0x1410>
    44a4:	d9814d17 	ldw	r6,1332(sp)
    44a8:	29400094 	ori	r5,r5,2
    44ac:	00800c04 	movi	r2,48
    44b0:	01000084 	movi	r4,2
    44b4:	d9414c15 	stw	r5,1328(sp)
    44b8:	d8800445 	stb	r2,17(sp)
    44bc:	d9800485 	stb	r6,18(sp)
    44c0:	d8000405 	stb	zero,16(sp)
    44c4:	003e3206 	br	3d90 <___vfprintf_internal_r+0xa38>
    44c8:	01800074 	movhi	r6,1
    44cc:	31bbf604 	addi	r6,r6,-4136
    44d0:	d9814415 	stw	r6,1296(sp)
    44d4:	003fe606 	br	4470 <___vfprintf_internal_r+0x1118>
    44d8:	00800ac4 	movi	r2,43
    44dc:	d8800405 	stb	r2,16(sp)
    44e0:	b8c00007 	ldb	r3,0(r23)
    44e4:	003c1b06 	br	3554 <___vfprintf_internal_r+0x1fc>
    44e8:	d8814c17 	ldw	r2,1328(sp)
    44ec:	b8c00007 	ldb	r3,0(r23)
    44f0:	10800054 	ori	r2,r2,1
    44f4:	d8814c15 	stw	r2,1328(sp)
    44f8:	003c1606 	br	3554 <___vfprintf_internal_r+0x1fc>
    44fc:	d8800407 	ldb	r2,16(sp)
    4500:	1000461e 	bne	r2,zero,461c <___vfprintf_internal_r+0x12c4>
    4504:	00800804 	movi	r2,32
    4508:	d8800405 	stb	r2,16(sp)
    450c:	b8c00007 	ldb	r3,0(r23)
    4510:	003c1006 	br	3554 <___vfprintf_internal_r+0x1fc>
    4514:	d9814c17 	ldw	r6,1328(sp)
    4518:	b8c00007 	ldb	r3,0(r23)
    451c:	31800214 	ori	r6,r6,8
    4520:	d9814c15 	stw	r6,1328(sp)
    4524:	003c0b06 	br	3554 <___vfprintf_internal_r+0x1fc>
    4528:	0007883a 	mov	r3,zero
    452c:	01000244 	movi	r4,9
    4530:	188002a4 	muli	r2,r3,10
    4534:	b8c00007 	ldb	r3,0(r23)
    4538:	d9814d17 	ldw	r6,1332(sp)
    453c:	bdc00044 	addi	r23,r23,1
    4540:	d8c14d15 	stw	r3,1332(sp)
    4544:	d9414d17 	ldw	r5,1332(sp)
    4548:	3085883a 	add	r2,r6,r2
    454c:	10fff404 	addi	r3,r2,-48
    4550:	28bff404 	addi	r2,r5,-48
    4554:	20bff62e 	bgeu	r4,r2,4530 <___vfprintf_internal_r+0x11d8>
    4558:	d8c14a15 	stw	r3,1320(sp)
    455c:	003bff06 	br	355c <___vfprintf_internal_r+0x204>
    4560:	d9414c17 	ldw	r5,1328(sp)
    4564:	b8c00007 	ldb	r3,0(r23)
    4568:	29402014 	ori	r5,r5,128
    456c:	d9414c15 	stw	r5,1328(sp)
    4570:	003bf806 	br	3554 <___vfprintf_internal_r+0x1fc>
    4574:	b8c00007 	ldb	r3,0(r23)
    4578:	00800a84 	movi	r2,42
    457c:	bdc00044 	addi	r23,r23,1
    4580:	18831526 	beq	r3,r2,51d8 <___vfprintf_internal_r+0x1e80>
    4584:	d8c14d15 	stw	r3,1332(sp)
    4588:	18bff404 	addi	r2,r3,-48
    458c:	00c00244 	movi	r3,9
    4590:	18827836 	bltu	r3,r2,4f74 <___vfprintf_internal_r+0x1c1c>
    4594:	000d883a 	mov	r6,zero
    4598:	308002a4 	muli	r2,r6,10
    459c:	b9800007 	ldb	r6,0(r23)
    45a0:	d9414d17 	ldw	r5,1332(sp)
    45a4:	bdc00044 	addi	r23,r23,1
    45a8:	d9814d15 	stw	r6,1332(sp)
    45ac:	d9014d17 	ldw	r4,1332(sp)
    45b0:	1145883a 	add	r2,r2,r5
    45b4:	11bff404 	addi	r6,r2,-48
    45b8:	20bff404 	addi	r2,r4,-48
    45bc:	18bff62e 	bgeu	r3,r2,4598 <___vfprintf_internal_r+0x1240>
    45c0:	3027883a 	mov	r19,r6
    45c4:	303be50e 	bge	r6,zero,355c <___vfprintf_internal_r+0x204>
    45c8:	04ffffc4 	movi	r19,-1
    45cc:	003be306 	br	355c <___vfprintf_internal_r+0x204>
    45d0:	d8000405 	stb	zero,16(sp)
    45d4:	39800017 	ldw	r6,0(r7)
    45d8:	39c00104 	addi	r7,r7,4
    45dc:	d9c14015 	stw	r7,1280(sp)
    45e0:	d9814115 	stw	r6,1284(sp)
    45e4:	3001c926 	beq	r6,zero,4d0c <___vfprintf_internal_r+0x19b4>
    45e8:	98000e16 	blt	r19,zero,4624 <___vfprintf_internal_r+0x12cc>
    45ec:	d9014117 	ldw	r4,1284(sp)
    45f0:	000b883a 	mov	r5,zero
    45f4:	980d883a 	mov	r6,r19
    45f8:	0007e880 	call	7e88 <memchr>
    45fc:	10025926 	beq	r2,zero,4f64 <___vfprintf_internal_r+0x1c0c>
    4600:	d8c14117 	ldw	r3,1284(sp)
    4604:	10cfc83a 	sub	r7,r2,r3
    4608:	99c19e16 	blt	r19,r7,4c84 <___vfprintf_internal_r+0x192c>
    460c:	d9c14515 	stw	r7,1300(sp)
    4610:	38000916 	blt	r7,zero,4638 <___vfprintf_internal_r+0x12e0>
    4614:	d8014615 	stw	zero,1304(sp)
    4618:	003df106 	br	3de0 <___vfprintf_internal_r+0xa88>
    461c:	b8c00007 	ldb	r3,0(r23)
    4620:	003bcc06 	br	3554 <___vfprintf_internal_r+0x1fc>
    4624:	d9014117 	ldw	r4,1284(sp)
    4628:	000328c0 	call	328c <strlen>
    462c:	d8814515 	stw	r2,1300(sp)
    4630:	100f883a 	mov	r7,r2
    4634:	103ff70e 	bge	r2,zero,4614 <___vfprintf_internal_r+0x12bc>
    4638:	d8014515 	stw	zero,1300(sp)
    463c:	d8014615 	stw	zero,1304(sp)
    4640:	003de706 	br	3de0 <___vfprintf_internal_r+0xa88>
    4644:	20c03fcc 	andi	r3,r4,255
    4648:	00800044 	movi	r2,1
    464c:	18802d26 	beq	r3,r2,4704 <___vfprintf_internal_r+0x13ac>
    4650:	18800e36 	bltu	r3,r2,468c <___vfprintf_internal_r+0x1334>
    4654:	00800084 	movi	r2,2
    4658:	1880fa26 	beq	r3,r2,4a44 <___vfprintf_internal_r+0x16ec>
    465c:	01000074 	movhi	r4,1
    4660:	213c0604 	addi	r4,r4,-4072
    4664:	000328c0 	call	328c <strlen>
    4668:	100f883a 	mov	r7,r2
    466c:	dcc14515 	stw	r19,1300(sp)
    4670:	9880010e 	bge	r19,r2,4678 <___vfprintf_internal_r+0x1320>
    4674:	d8814515 	stw	r2,1300(sp)
    4678:	00800074 	movhi	r2,1
    467c:	10bc0604 	addi	r2,r2,-4072
    4680:	dcc14615 	stw	r19,1304(sp)
    4684:	d8814115 	stw	r2,1284(sp)
    4688:	003dd506 	br	3de0 <___vfprintf_internal_r+0xa88>
    468c:	d9401904 	addi	r5,sp,100
    4690:	dd000f04 	addi	r20,sp,60
    4694:	d9414115 	stw	r5,1284(sp)
    4698:	880a977a 	slli	r5,r17,29
    469c:	d9814117 	ldw	r6,1284(sp)
    46a0:	8004d0fa 	srli	r2,r16,3
    46a4:	8806d0fa 	srli	r3,r17,3
    46a8:	810001cc 	andi	r4,r16,7
    46ac:	2884b03a 	or	r2,r5,r2
    46b0:	31bfffc4 	addi	r6,r6,-1
    46b4:	21000c04 	addi	r4,r4,48
    46b8:	d9814115 	stw	r6,1284(sp)
    46bc:	10cab03a 	or	r5,r2,r3
    46c0:	31000005 	stb	r4,0(r6)
    46c4:	1021883a 	mov	r16,r2
    46c8:	1823883a 	mov	r17,r3
    46cc:	283ff21e 	bne	r5,zero,4698 <___vfprintf_internal_r+0x1340>
    46d0:	d8c14c17 	ldw	r3,1328(sp)
    46d4:	1880004c 	andi	r2,r3,1
    46d8:	1005003a 	cmpeq	r2,r2,zero
    46dc:	103db91e 	bne	r2,zero,3dc4 <___vfprintf_internal_r+0xa6c>
    46e0:	20803fcc 	andi	r2,r4,255
    46e4:	1080201c 	xori	r2,r2,128
    46e8:	10bfe004 	addi	r2,r2,-128
    46ec:	00c00c04 	movi	r3,48
    46f0:	10fdb426 	beq	r2,r3,3dc4 <___vfprintf_internal_r+0xa6c>
    46f4:	31bfffc4 	addi	r6,r6,-1
    46f8:	d9814115 	stw	r6,1284(sp)
    46fc:	30c00005 	stb	r3,0(r6)
    4700:	003db006 	br	3dc4 <___vfprintf_internal_r+0xa6c>
    4704:	88800068 	cmpgeui	r2,r17,1
    4708:	10002c1e 	bne	r2,zero,47bc <___vfprintf_internal_r+0x1464>
    470c:	8800021e 	bne	r17,zero,4718 <___vfprintf_internal_r+0x13c0>
    4710:	00800244 	movi	r2,9
    4714:	14002936 	bltu	r2,r16,47bc <___vfprintf_internal_r+0x1464>
    4718:	d90018c4 	addi	r4,sp,99
    471c:	dd000f04 	addi	r20,sp,60
    4720:	d9014115 	stw	r4,1284(sp)
    4724:	d9014117 	ldw	r4,1284(sp)
    4728:	80800c04 	addi	r2,r16,48
    472c:	20800005 	stb	r2,0(r4)
    4730:	003da406 	br	3dc4 <___vfprintf_internal_r+0xa6c>
    4734:	dc400d17 	ldw	r17,52(sp)
    4738:	07000074 	movhi	fp,1
    473c:	e73c0d84 	addi	fp,fp,-4042
    4740:	9425883a 	add	r18,r18,r16
    4744:	8c400044 	addi	r17,r17,1
    4748:	008001c4 	movi	r2,7
    474c:	1f000015 	stw	fp,0(r3)
    4750:	1c000115 	stw	r16,4(r3)
    4754:	dc800e15 	stw	r18,56(sp)
    4758:	dc400d15 	stw	r17,52(sp)
    475c:	147de216 	blt	r2,r17,3ee8 <___vfprintf_internal_r+0xb90>
    4760:	18c00204 	addi	r3,r3,8
    4764:	003c7a06 	br	3950 <___vfprintf_internal_r+0x5f8>
    4768:	01000084 	movi	r4,2
    476c:	d8000405 	stb	zero,16(sp)
    4770:	003d8706 	br	3d90 <___vfprintf_internal_r+0xa38>
    4774:	d9814c17 	ldw	r6,1328(sp)
    4778:	30c4703a 	and	r2,r6,r3
    477c:	1005003a 	cmpeq	r2,r2,zero
    4780:	103cb926 	beq	r2,zero,3a68 <___vfprintf_internal_r+0x710>
    4784:	d9014117 	ldw	r4,1284(sp)
    4788:	94800044 	addi	r18,r18,1
    478c:	8c400044 	addi	r17,r17,1
    4790:	008001c4 	movi	r2,7
    4794:	a9000015 	stw	r4,0(r21)
    4798:	a8c00115 	stw	r3,4(r21)
    479c:	dc800e15 	stw	r18,56(sp)
    47a0:	dc400d15 	stw	r17,52(sp)
    47a4:	147e6616 	blt	r2,r17,4140 <___vfprintf_internal_r+0xde8>
    47a8:	acc00204 	addi	r19,r21,8
    47ac:	003cd706 	br	3b0c <___vfprintf_internal_r+0x7b4>
    47b0:	07000074 	movhi	fp,1
    47b4:	e73c0d84 	addi	fp,fp,-4042
    47b8:	003c4f06 	br	38f8 <___vfprintf_internal_r+0x5a0>
    47bc:	dd000f04 	addi	r20,sp,60
    47c0:	dc801904 	addi	r18,sp,100
    47c4:	8009883a 	mov	r4,r16
    47c8:	880b883a 	mov	r5,r17
    47cc:	01800284 	movi	r6,10
    47d0:	000f883a 	mov	r7,zero
    47d4:	000a4540 	call	a454 <__umoddi3>
    47d8:	12000c04 	addi	r8,r2,48
    47dc:	94bfffc4 	addi	r18,r18,-1
    47e0:	8009883a 	mov	r4,r16
    47e4:	880b883a 	mov	r5,r17
    47e8:	01800284 	movi	r6,10
    47ec:	000f883a 	mov	r7,zero
    47f0:	92000005 	stb	r8,0(r18)
    47f4:	0009e780 	call	9e78 <__udivdi3>
    47f8:	1009883a 	mov	r4,r2
    47fc:	1021883a 	mov	r16,r2
    4800:	18800068 	cmpgeui	r2,r3,1
    4804:	1823883a 	mov	r17,r3
    4808:	103fee1e 	bne	r2,zero,47c4 <___vfprintf_internal_r+0x146c>
    480c:	1800021e 	bne	r3,zero,4818 <___vfprintf_internal_r+0x14c0>
    4810:	00800244 	movi	r2,9
    4814:	113feb36 	bltu	r2,r4,47c4 <___vfprintf_internal_r+0x146c>
    4818:	94bfffc4 	addi	r18,r18,-1
    481c:	dc814115 	stw	r18,1284(sp)
    4820:	003fc006 	br	4724 <___vfprintf_internal_r+0x13cc>
    4824:	d9014c17 	ldw	r4,1328(sp)
    4828:	2080004c 	andi	r2,r4,1
    482c:	10009a1e 	bne	r2,zero,4a98 <___vfprintf_internal_r+0x1740>
    4830:	d9401904 	addi	r5,sp,100
    4834:	dd000f04 	addi	r20,sp,60
    4838:	d9414115 	stw	r5,1284(sp)
    483c:	003d6106 	br	3dc4 <___vfprintf_internal_r+0xa6c>
    4840:	d9014f17 	ldw	r4,1340(sp)
    4844:	b00b883a 	mov	r5,r22
    4848:	d9800c04 	addi	r6,sp,48
    484c:	00033000 	call	3300 <__sprint_r>
    4850:	103c791e 	bne	r2,zero,3a38 <___vfprintf_internal_r+0x6e0>
    4854:	dc800e17 	ldw	r18,56(sp)
    4858:	d8c01904 	addi	r3,sp,100
    485c:	003cff06 	br	3c5c <___vfprintf_internal_r+0x904>
    4860:	d8c14c17 	ldw	r3,1328(sp)
    4864:	1880040c 	andi	r2,r3,16
    4868:	1000711e 	bne	r2,zero,4a30 <___vfprintf_internal_r+0x16d8>
    486c:	d9014c17 	ldw	r4,1328(sp)
    4870:	2080100c 	andi	r2,r4,64
    4874:	10006e26 	beq	r2,zero,4a30 <___vfprintf_internal_r+0x16d8>
    4878:	3c00000b 	ldhu	r16,0(r7)
    487c:	0023883a 	mov	r17,zero
    4880:	39c00104 	addi	r7,r7,4
    4884:	d9c14015 	stw	r7,1280(sp)
    4888:	003f0006 	br	448c <___vfprintf_internal_r+0x1134>
    488c:	dc400d17 	ldw	r17,52(sp)
    4890:	07000074 	movhi	fp,1
    4894:	e73c0d84 	addi	fp,fp,-4042
    4898:	9425883a 	add	r18,r18,r16
    489c:	8c400044 	addi	r17,r17,1
    48a0:	008001c4 	movi	r2,7
    48a4:	1f000015 	stw	fp,0(r3)
    48a8:	1c000115 	stw	r16,4(r3)
    48ac:	dc800e15 	stw	r18,56(sp)
    48b0:	dc400d15 	stw	r17,52(sp)
    48b4:	147d7616 	blt	r2,r17,3e90 <___vfprintf_internal_r+0xb38>
    48b8:	18c00204 	addi	r3,r3,8
    48bc:	003d7b06 	br	3eac <___vfprintf_internal_r+0xb54>
    48c0:	dc800e17 	ldw	r18,56(sp)
    48c4:	dc400d17 	ldw	r17,52(sp)
    48c8:	07000074 	movhi	fp,1
    48cc:	e73c1184 	addi	fp,fp,-4026
    48d0:	003bc006 	br	37d4 <___vfprintf_internal_r+0x47c>
    48d4:	d9014f17 	ldw	r4,1340(sp)
    48d8:	b00b883a 	mov	r5,r22
    48dc:	d9800c04 	addi	r6,sp,48
    48e0:	00033000 	call	3300 <__sprint_r>
    48e4:	103c541e 	bne	r2,zero,3a38 <___vfprintf_internal_r+0x6e0>
    48e8:	dc800e17 	ldw	r18,56(sp)
    48ec:	d8c01904 	addi	r3,sp,100
    48f0:	003ce906 	br	3c98 <___vfprintf_internal_r+0x940>
    48f4:	3c000017 	ldw	r16,0(r7)
    48f8:	0009883a 	mov	r4,zero
    48fc:	39c00104 	addi	r7,r7,4
    4900:	0023883a 	mov	r17,zero
    4904:	d9c14015 	stw	r7,1280(sp)
    4908:	d8000405 	stb	zero,16(sp)
    490c:	003d2006 	br	3d90 <___vfprintf_internal_r+0xa38>
    4910:	38800017 	ldw	r2,0(r7)
    4914:	39c00104 	addi	r7,r7,4
    4918:	d9c14015 	stw	r7,1280(sp)
    491c:	1023d7fa 	srai	r17,r2,31
    4920:	1021883a 	mov	r16,r2
    4924:	003d1806 	br	3d88 <___vfprintf_internal_r+0xa30>
    4928:	3c000017 	ldw	r16,0(r7)
    492c:	01000044 	movi	r4,1
    4930:	39c00104 	addi	r7,r7,4
    4934:	0023883a 	mov	r17,zero
    4938:	d9c14015 	stw	r7,1280(sp)
    493c:	d8000405 	stb	zero,16(sp)
    4940:	003d1306 	br	3d90 <___vfprintf_internal_r+0xa38>
    4944:	00800074 	movhi	r2,1
    4948:	10bc0d04 	addi	r2,r2,-4044
    494c:	94800044 	addi	r18,r18,1
    4950:	8c400044 	addi	r17,r17,1
    4954:	a8800015 	stw	r2,0(r21)
    4958:	00c00044 	movi	r3,1
    495c:	008001c4 	movi	r2,7
    4960:	a8c00115 	stw	r3,4(r21)
    4964:	dc800e15 	stw	r18,56(sp)
    4968:	dc400d15 	stw	r17,52(sp)
    496c:	1440ca16 	blt	r2,r17,4c98 <___vfprintf_internal_r+0x1940>
    4970:	a8c00204 	addi	r3,r21,8
    4974:	2000061e 	bne	r4,zero,4990 <___vfprintf_internal_r+0x1638>
    4978:	d9414717 	ldw	r5,1308(sp)
    497c:	2800041e 	bne	r5,zero,4990 <___vfprintf_internal_r+0x1638>
    4980:	d9814c17 	ldw	r6,1328(sp)
    4984:	3080004c 	andi	r2,r6,1
    4988:	1005003a 	cmpeq	r2,r2,zero
    498c:	103bf01e 	bne	r2,zero,3950 <___vfprintf_internal_r+0x5f8>
    4990:	00800044 	movi	r2,1
    4994:	dc400d17 	ldw	r17,52(sp)
    4998:	18800115 	stw	r2,4(r3)
    499c:	d8814917 	ldw	r2,1316(sp)
    49a0:	94800044 	addi	r18,r18,1
    49a4:	8c400044 	addi	r17,r17,1
    49a8:	18800015 	stw	r2,0(r3)
    49ac:	008001c4 	movi	r2,7
    49b0:	dc800e15 	stw	r18,56(sp)
    49b4:	dc400d15 	stw	r17,52(sp)
    49b8:	1440ca16 	blt	r2,r17,4ce4 <___vfprintf_internal_r+0x198c>
    49bc:	18c00204 	addi	r3,r3,8
    49c0:	0121c83a 	sub	r16,zero,r4
    49c4:	0400500e 	bge	zero,r16,4b08 <___vfprintf_internal_r+0x17b0>
    49c8:	00800404 	movi	r2,16
    49cc:	1400800e 	bge	r2,r16,4bd0 <___vfprintf_internal_r+0x1878>
    49d0:	1027883a 	mov	r19,r2
    49d4:	07000074 	movhi	fp,1
    49d8:	e73c0d84 	addi	fp,fp,-4042
    49dc:	050001c4 	movi	r20,7
    49e0:	00000306 	br	49f0 <___vfprintf_internal_r+0x1698>
    49e4:	18c00204 	addi	r3,r3,8
    49e8:	843ffc04 	addi	r16,r16,-16
    49ec:	9c007a0e 	bge	r19,r16,4bd8 <___vfprintf_internal_r+0x1880>
    49f0:	94800404 	addi	r18,r18,16
    49f4:	8c400044 	addi	r17,r17,1
    49f8:	1f000015 	stw	fp,0(r3)
    49fc:	1cc00115 	stw	r19,4(r3)
    4a00:	dc800e15 	stw	r18,56(sp)
    4a04:	dc400d15 	stw	r17,52(sp)
    4a08:	a47ff60e 	bge	r20,r17,49e4 <___vfprintf_internal_r+0x168c>
    4a0c:	d9014f17 	ldw	r4,1340(sp)
    4a10:	b00b883a 	mov	r5,r22
    4a14:	d9800c04 	addi	r6,sp,48
    4a18:	00033000 	call	3300 <__sprint_r>
    4a1c:	103c061e 	bne	r2,zero,3a38 <___vfprintf_internal_r+0x6e0>
    4a20:	dc800e17 	ldw	r18,56(sp)
    4a24:	dc400d17 	ldw	r17,52(sp)
    4a28:	d8c01904 	addi	r3,sp,100
    4a2c:	003fee06 	br	49e8 <___vfprintf_internal_r+0x1690>
    4a30:	3c000017 	ldw	r16,0(r7)
    4a34:	0023883a 	mov	r17,zero
    4a38:	39c00104 	addi	r7,r7,4
    4a3c:	d9c14015 	stw	r7,1280(sp)
    4a40:	003e9206 	br	448c <___vfprintf_internal_r+0x1134>
    4a44:	d9401904 	addi	r5,sp,100
    4a48:	dd000f04 	addi	r20,sp,60
    4a4c:	d9414115 	stw	r5,1284(sp)
    4a50:	d9814417 	ldw	r6,1296(sp)
    4a54:	880a973a 	slli	r5,r17,28
    4a58:	8004d13a 	srli	r2,r16,4
    4a5c:	810003cc 	andi	r4,r16,15
    4a60:	3109883a 	add	r4,r6,r4
    4a64:	2884b03a 	or	r2,r5,r2
    4a68:	21400003 	ldbu	r5,0(r4)
    4a6c:	d9014117 	ldw	r4,1284(sp)
    4a70:	8806d13a 	srli	r3,r17,4
    4a74:	1021883a 	mov	r16,r2
    4a78:	213fffc4 	addi	r4,r4,-1
    4a7c:	d9014115 	stw	r4,1284(sp)
    4a80:	d9814117 	ldw	r6,1284(sp)
    4a84:	10c8b03a 	or	r4,r2,r3
    4a88:	1823883a 	mov	r17,r3
    4a8c:	31400005 	stb	r5,0(r6)
    4a90:	203fef1e 	bne	r4,zero,4a50 <___vfprintf_internal_r+0x16f8>
    4a94:	003ccb06 	br	3dc4 <___vfprintf_internal_r+0xa6c>
    4a98:	00800c04 	movi	r2,48
    4a9c:	d98018c4 	addi	r6,sp,99
    4aa0:	dd000f04 	addi	r20,sp,60
    4aa4:	d88018c5 	stb	r2,99(sp)
    4aa8:	d9814115 	stw	r6,1284(sp)
    4aac:	003cc506 	br	3dc4 <___vfprintf_internal_r+0xa6c>
    4ab0:	dc400d17 	ldw	r17,52(sp)
    4ab4:	07000074 	movhi	fp,1
    4ab8:	e73c1184 	addi	fp,fp,-4026
    4abc:	003bc706 	br	39dc <___vfprintf_internal_r+0x684>
    4ac0:	d9414c17 	ldw	r5,1328(sp)
    4ac4:	2880040c 	andi	r2,r5,16
    4ac8:	10007c26 	beq	r2,zero,4cbc <___vfprintf_internal_r+0x1964>
    4acc:	38800017 	ldw	r2,0(r7)
    4ad0:	39c00104 	addi	r7,r7,4
    4ad4:	d9c14015 	stw	r7,1280(sp)
    4ad8:	d9814b17 	ldw	r6,1324(sp)
    4adc:	d9c14017 	ldw	r7,1280(sp)
    4ae0:	11800015 	stw	r6,0(r2)
    4ae4:	003a7806 	br	34c8 <___vfprintf_internal_r+0x170>
    4ae8:	d9014f17 	ldw	r4,1340(sp)
    4aec:	b00b883a 	mov	r5,r22
    4af0:	d9800c04 	addi	r6,sp,48
    4af4:	00033000 	call	3300 <__sprint_r>
    4af8:	103bcf1e 	bne	r2,zero,3a38 <___vfprintf_internal_r+0x6e0>
    4afc:	dc800e17 	ldw	r18,56(sp)
    4b00:	dc400d17 	ldw	r17,52(sp)
    4b04:	d8c01904 	addi	r3,sp,100
    4b08:	d9014717 	ldw	r4,1308(sp)
    4b0c:	d9414117 	ldw	r5,1284(sp)
    4b10:	8c400044 	addi	r17,r17,1
    4b14:	9125883a 	add	r18,r18,r4
    4b18:	008001c4 	movi	r2,7
    4b1c:	19400015 	stw	r5,0(r3)
    4b20:	19000115 	stw	r4,4(r3)
    4b24:	dc800e15 	stw	r18,56(sp)
    4b28:	dc400d15 	stw	r17,52(sp)
    4b2c:	147cee16 	blt	r2,r17,3ee8 <___vfprintf_internal_r+0xb90>
    4b30:	18c00204 	addi	r3,r3,8
    4b34:	003b8606 	br	3950 <___vfprintf_internal_r+0x5f8>
    4b38:	38c00017 	ldw	r3,0(r7)
    4b3c:	39000204 	addi	r4,r7,8
    4b40:	d9014015 	stw	r4,1280(sp)
    4b44:	d8c14215 	stw	r3,1288(sp)
    4b48:	39c00117 	ldw	r7,4(r7)
    4b4c:	d9c14315 	stw	r7,1292(sp)
    4b50:	003e2006 	br	43d4 <___vfprintf_internal_r+0x107c>
    4b54:	0005883a 	mov	r2,zero
    4b58:	1409c83a 	sub	r4,r2,r16
    4b5c:	1105803a 	cmpltu	r2,r2,r4
    4b60:	044bc83a 	sub	r5,zero,r17
    4b64:	2885c83a 	sub	r2,r5,r2
    4b68:	2021883a 	mov	r16,r4
    4b6c:	1023883a 	mov	r17,r2
    4b70:	01000044 	movi	r4,1
    4b74:	00800b44 	movi	r2,45
    4b78:	d8800405 	stb	r2,16(sp)
    4b7c:	003c8406 	br	3d90 <___vfprintf_internal_r+0xa38>
    4b80:	d9014f17 	ldw	r4,1340(sp)
    4b84:	b00b883a 	mov	r5,r22
    4b88:	d9800c04 	addi	r6,sp,48
    4b8c:	00033000 	call	3300 <__sprint_r>
    4b90:	103ba91e 	bne	r2,zero,3a38 <___vfprintf_internal_r+0x6e0>
    4b94:	dc800e17 	ldw	r18,56(sp)
    4b98:	dc400d17 	ldw	r17,52(sp)
    4b9c:	d9000517 	ldw	r4,20(sp)
    4ba0:	d9401904 	addi	r5,sp,100
    4ba4:	003da706 	br	4244 <___vfprintf_internal_r+0xeec>
    4ba8:	d9014f17 	ldw	r4,1340(sp)
    4bac:	b00b883a 	mov	r5,r22
    4bb0:	d9800c04 	addi	r6,sp,48
    4bb4:	00033000 	call	3300 <__sprint_r>
    4bb8:	103b9f1e 	bne	r2,zero,3a38 <___vfprintf_internal_r+0x6e0>
    4bbc:	dc800e17 	ldw	r18,56(sp)
    4bc0:	dc400d17 	ldw	r17,52(sp)
    4bc4:	d9000517 	ldw	r4,20(sp)
    4bc8:	d8c01904 	addi	r3,sp,100
    4bcc:	003d9106 	br	4214 <___vfprintf_internal_r+0xebc>
    4bd0:	07000074 	movhi	fp,1
    4bd4:	e73c0d84 	addi	fp,fp,-4042
    4bd8:	9425883a 	add	r18,r18,r16
    4bdc:	8c400044 	addi	r17,r17,1
    4be0:	008001c4 	movi	r2,7
    4be4:	1f000015 	stw	fp,0(r3)
    4be8:	1c000115 	stw	r16,4(r3)
    4bec:	dc800e15 	stw	r18,56(sp)
    4bf0:	dc400d15 	stw	r17,52(sp)
    4bf4:	147fbc16 	blt	r2,r17,4ae8 <___vfprintf_internal_r+0x1790>
    4bf8:	18c00204 	addi	r3,r3,8
    4bfc:	003fc206 	br	4b08 <___vfprintf_internal_r+0x17b0>
    4c00:	d9014f17 	ldw	r4,1340(sp)
    4c04:	b00b883a 	mov	r5,r22
    4c08:	d9800c04 	addi	r6,sp,48
    4c0c:	00033000 	call	3300 <__sprint_r>
    4c10:	103b891e 	bne	r2,zero,3a38 <___vfprintf_internal_r+0x6e0>
    4c14:	dc800e17 	ldw	r18,56(sp)
    4c18:	d9000517 	ldw	r4,20(sp)
    4c1c:	d8c01904 	addi	r3,sp,100
    4c20:	003d0206 	br	402c <___vfprintf_internal_r+0xcd4>
    4c24:	07000074 	movhi	fp,1
    4c28:	e73c0d84 	addi	fp,fp,-4042
    4c2c:	003be406 	br	3bc0 <___vfprintf_internal_r+0x868>
    4c30:	00800074 	movhi	r2,1
    4c34:	10bbfc04 	addi	r2,r2,-4112
    4c38:	d8814115 	stw	r2,1284(sp)
    4c3c:	003df506 	br	4414 <___vfprintf_internal_r+0x10bc>
    4c40:	d9014217 	ldw	r4,1288(sp)
    4c44:	d9414317 	ldw	r5,1292(sp)
    4c48:	00097ac0 	call	97ac <__isnand>
    4c4c:	10003926 	beq	r2,zero,4d34 <___vfprintf_internal_r+0x19dc>
    4c50:	d9414d17 	ldw	r5,1332(sp)
    4c54:	008011c4 	movi	r2,71
    4c58:	1140ce16 	blt	r2,r5,4f94 <___vfprintf_internal_r+0x1c3c>
    4c5c:	01800074 	movhi	r6,1
    4c60:	31bbfd04 	addi	r6,r6,-4108
    4c64:	d9814115 	stw	r6,1284(sp)
    4c68:	003dea06 	br	4414 <___vfprintf_internal_r+0x10bc>
    4c6c:	d9014c17 	ldw	r4,1328(sp)
    4c70:	bdc00044 	addi	r23,r23,1
    4c74:	b8c00007 	ldb	r3,0(r23)
    4c78:	21000814 	ori	r4,r4,32
    4c7c:	d9014c15 	stw	r4,1328(sp)
    4c80:	003a3406 	br	3554 <___vfprintf_internal_r+0x1fc>
    4c84:	dcc14515 	stw	r19,1300(sp)
    4c88:	98011016 	blt	r19,zero,50cc <___vfprintf_internal_r+0x1d74>
    4c8c:	980f883a 	mov	r7,r19
    4c90:	d8014615 	stw	zero,1304(sp)
    4c94:	003c5206 	br	3de0 <___vfprintf_internal_r+0xa88>
    4c98:	d9014f17 	ldw	r4,1340(sp)
    4c9c:	b00b883a 	mov	r5,r22
    4ca0:	d9800c04 	addi	r6,sp,48
    4ca4:	00033000 	call	3300 <__sprint_r>
    4ca8:	103b631e 	bne	r2,zero,3a38 <___vfprintf_internal_r+0x6e0>
    4cac:	dc800e17 	ldw	r18,56(sp)
    4cb0:	d9000517 	ldw	r4,20(sp)
    4cb4:	d8c01904 	addi	r3,sp,100
    4cb8:	003f2e06 	br	4974 <___vfprintf_internal_r+0x161c>
    4cbc:	d8c14c17 	ldw	r3,1328(sp)
    4cc0:	1880100c 	andi	r2,r3,64
    4cc4:	1000a026 	beq	r2,zero,4f48 <___vfprintf_internal_r+0x1bf0>
    4cc8:	38800017 	ldw	r2,0(r7)
    4ccc:	39c00104 	addi	r7,r7,4
    4cd0:	d9c14015 	stw	r7,1280(sp)
    4cd4:	d9014b17 	ldw	r4,1324(sp)
    4cd8:	d9c14017 	ldw	r7,1280(sp)
    4cdc:	1100000d 	sth	r4,0(r2)
    4ce0:	0039f906 	br	34c8 <___vfprintf_internal_r+0x170>
    4ce4:	d9014f17 	ldw	r4,1340(sp)
    4ce8:	b00b883a 	mov	r5,r22
    4cec:	d9800c04 	addi	r6,sp,48
    4cf0:	00033000 	call	3300 <__sprint_r>
    4cf4:	103b501e 	bne	r2,zero,3a38 <___vfprintf_internal_r+0x6e0>
    4cf8:	dc800e17 	ldw	r18,56(sp)
    4cfc:	dc400d17 	ldw	r17,52(sp)
    4d00:	d9000517 	ldw	r4,20(sp)
    4d04:	d8c01904 	addi	r3,sp,100
    4d08:	003f2d06 	br	49c0 <___vfprintf_internal_r+0x1668>
    4d0c:	00800184 	movi	r2,6
    4d10:	14c09a36 	bltu	r2,r19,4f7c <___vfprintf_internal_r+0x1c24>
    4d14:	dcc14515 	stw	r19,1300(sp)
    4d18:	9800010e 	bge	r19,zero,4d20 <___vfprintf_internal_r+0x19c8>
    4d1c:	d8014515 	stw	zero,1300(sp)
    4d20:	00800074 	movhi	r2,1
    4d24:	10bbff04 	addi	r2,r2,-4100
    4d28:	980f883a 	mov	r7,r19
    4d2c:	d8814115 	stw	r2,1284(sp)
    4d30:	003a7806 	br	3714 <___vfprintf_internal_r+0x3bc>
    4d34:	00bfffc4 	movi	r2,-1
    4d38:	9880e226 	beq	r19,r2,50c4 <___vfprintf_internal_r+0x1d6c>
    4d3c:	d9414d17 	ldw	r5,1332(sp)
    4d40:	008019c4 	movi	r2,103
    4d44:	2880dc26 	beq	r5,r2,50b8 <___vfprintf_internal_r+0x1d60>
    4d48:	008011c4 	movi	r2,71
    4d4c:	2880da26 	beq	r5,r2,50b8 <___vfprintf_internal_r+0x1d60>
    4d50:	d9414c17 	ldw	r5,1328(sp)
    4d54:	d9014317 	ldw	r4,1292(sp)
    4d58:	d9814217 	ldw	r6,1288(sp)
    4d5c:	29404014 	ori	r5,r5,256
    4d60:	d9414c15 	stw	r5,1328(sp)
    4d64:	2000cc16 	blt	r4,zero,5098 <___vfprintf_internal_r+0x1d40>
    4d68:	3021883a 	mov	r16,r6
    4d6c:	2023883a 	mov	r17,r4
    4d70:	0039883a 	mov	fp,zero
    4d74:	d9414d17 	ldw	r5,1332(sp)
    4d78:	00801984 	movi	r2,102
    4d7c:	2880b726 	beq	r5,r2,505c <___vfprintf_internal_r+0x1d04>
    4d80:	00801184 	movi	r2,70
    4d84:	2880b526 	beq	r5,r2,505c <___vfprintf_internal_r+0x1d04>
    4d88:	00801944 	movi	r2,101
    4d8c:	2880c826 	beq	r5,r2,50b0 <___vfprintf_internal_r+0x1d58>
    4d90:	00801144 	movi	r2,69
    4d94:	2880c626 	beq	r5,r2,50b0 <___vfprintf_internal_r+0x1d58>
    4d98:	9829883a 	mov	r20,r19
    4d9c:	d9014f17 	ldw	r4,1340(sp)
    4da0:	d8800504 	addi	r2,sp,20
    4da4:	880d883a 	mov	r6,r17
    4da8:	d8800115 	stw	r2,4(sp)
    4dac:	d8c00604 	addi	r3,sp,24
    4db0:	d8800704 	addi	r2,sp,28
    4db4:	800b883a 	mov	r5,r16
    4db8:	01c00084 	movi	r7,2
    4dbc:	d8c00215 	stw	r3,8(sp)
    4dc0:	d8800315 	stw	r2,12(sp)
    4dc4:	dd000015 	stw	r20,0(sp)
    4dc8:	00057300 	call	5730 <_dtoa_r>
    4dcc:	d9814d17 	ldw	r6,1332(sp)
    4dd0:	d8814115 	stw	r2,1284(sp)
    4dd4:	008019c4 	movi	r2,103
    4dd8:	30809526 	beq	r6,r2,5030 <___vfprintf_internal_r+0x1cd8>
    4ddc:	d8c14d17 	ldw	r3,1332(sp)
    4de0:	008011c4 	movi	r2,71
    4de4:	18809226 	beq	r3,r2,5030 <___vfprintf_internal_r+0x1cd8>
    4de8:	d9414117 	ldw	r5,1284(sp)
    4dec:	d9814d17 	ldw	r6,1332(sp)
    4df0:	00801984 	movi	r2,102
    4df4:	2d25883a 	add	r18,r5,r20
    4df8:	30808626 	beq	r6,r2,5014 <___vfprintf_internal_r+0x1cbc>
    4dfc:	00801184 	movi	r2,70
    4e00:	30808426 	beq	r6,r2,5014 <___vfprintf_internal_r+0x1cbc>
    4e04:	000d883a 	mov	r6,zero
    4e08:	000f883a 	mov	r7,zero
    4e0c:	880b883a 	mov	r5,r17
    4e10:	8009883a 	mov	r4,r16
    4e14:	000b5240 	call	b524 <__eqdf2>
    4e18:	1000751e 	bne	r2,zero,4ff0 <___vfprintf_internal_r+0x1c98>
    4e1c:	9005883a 	mov	r2,r18
    4e20:	dc800715 	stw	r18,28(sp)
    4e24:	d9014117 	ldw	r4,1284(sp)
    4e28:	d9414d17 	ldw	r5,1332(sp)
    4e2c:	00c019c4 	movi	r3,103
    4e30:	1125c83a 	sub	r18,r2,r4
    4e34:	28c06826 	beq	r5,r3,4fd8 <___vfprintf_internal_r+0x1c80>
    4e38:	008011c4 	movi	r2,71
    4e3c:	28806626 	beq	r5,r2,4fd8 <___vfprintf_internal_r+0x1c80>
    4e40:	d9000517 	ldw	r4,20(sp)
    4e44:	d8c14d17 	ldw	r3,1332(sp)
    4e48:	00801944 	movi	r2,101
    4e4c:	10c05516 	blt	r2,r3,4fa4 <___vfprintf_internal_r+0x1c4c>
    4e50:	213fffc4 	addi	r4,r4,-1
    4e54:	d9000515 	stw	r4,20(sp)
    4e58:	d8c00805 	stb	r3,32(sp)
    4e5c:	2021883a 	mov	r16,r4
    4e60:	2000c116 	blt	r4,zero,5168 <___vfprintf_internal_r+0x1e10>
    4e64:	00800ac4 	movi	r2,43
    4e68:	d8800845 	stb	r2,33(sp)
    4e6c:	00800244 	movi	r2,9
    4e70:	1400af0e 	bge	r2,r16,5130 <___vfprintf_internal_r+0x1dd8>
    4e74:	1027883a 	mov	r19,r2
    4e78:	dc400b84 	addi	r17,sp,46
    4e7c:	8009883a 	mov	r4,r16
    4e80:	01400284 	movi	r5,10
    4e84:	00028800 	call	2880 <__modsi3>
    4e88:	10800c04 	addi	r2,r2,48
    4e8c:	8c7fffc4 	addi	r17,r17,-1
    4e90:	8009883a 	mov	r4,r16
    4e94:	01400284 	movi	r5,10
    4e98:	88800005 	stb	r2,0(r17)
    4e9c:	00028200 	call	2820 <__divsi3>
    4ea0:	1021883a 	mov	r16,r2
    4ea4:	98bff516 	blt	r19,r2,4e7c <___vfprintf_internal_r+0x1b24>
    4ea8:	10c00c04 	addi	r3,r2,48
    4eac:	d88009c4 	addi	r2,sp,39
    4eb0:	108001c4 	addi	r2,r2,7
    4eb4:	897fffc4 	addi	r5,r17,-1
    4eb8:	88ffffc5 	stb	r3,-1(r17)
    4ebc:	2880a72e 	bgeu	r5,r2,515c <___vfprintf_internal_r+0x1e04>
    4ec0:	1009883a 	mov	r4,r2
    4ec4:	d9800804 	addi	r6,sp,32
    4ec8:	d8c00884 	addi	r3,sp,34
    4ecc:	28800003 	ldbu	r2,0(r5)
    4ed0:	29400044 	addi	r5,r5,1
    4ed4:	18800005 	stb	r2,0(r3)
    4ed8:	18c00044 	addi	r3,r3,1
    4edc:	293ffb36 	bltu	r5,r4,4ecc <___vfprintf_internal_r+0x1b74>
    4ee0:	1987c83a 	sub	r3,r3,r6
    4ee4:	00800044 	movi	r2,1
    4ee8:	d8c14815 	stw	r3,1312(sp)
    4eec:	90cf883a 	add	r7,r18,r3
    4ef0:	1480960e 	bge	r2,r18,514c <___vfprintf_internal_r+0x1df4>
    4ef4:	39c00044 	addi	r7,r7,1
    4ef8:	d9c14515 	stw	r7,1300(sp)
    4efc:	38003416 	blt	r7,zero,4fd0 <___vfprintf_internal_r+0x1c78>
    4f00:	e0803fcc 	andi	r2,fp,255
    4f04:	1080201c 	xori	r2,r2,128
    4f08:	10bfe004 	addi	r2,r2,-128
    4f0c:	10004e26 	beq	r2,zero,5048 <___vfprintf_internal_r+0x1cf0>
    4f10:	00800b44 	movi	r2,45
    4f14:	dc814715 	stw	r18,1308(sp)
    4f18:	d8014615 	stw	zero,1304(sp)
    4f1c:	d8800405 	stb	r2,16(sp)
    4f20:	003bb106 	br	3de8 <___vfprintf_internal_r+0xa90>
    4f24:	00800b44 	movi	r2,45
    4f28:	d8800405 	stb	r2,16(sp)
    4f2c:	003d3306 	br	43fc <___vfprintf_internal_r+0x10a4>
    4f30:	d9014f17 	ldw	r4,1340(sp)
    4f34:	b00b883a 	mov	r5,r22
    4f38:	d9800c04 	addi	r6,sp,48
    4f3c:	00033000 	call	3300 <__sprint_r>
    4f40:	103abd1e 	bne	r2,zero,3a38 <___vfprintf_internal_r+0x6e0>
    4f44:	003abb06 	br	3a34 <___vfprintf_internal_r+0x6dc>
    4f48:	38800017 	ldw	r2,0(r7)
    4f4c:	39c00104 	addi	r7,r7,4
    4f50:	d9c14015 	stw	r7,1280(sp)
    4f54:	d9414b17 	ldw	r5,1324(sp)
    4f58:	d9c14017 	ldw	r7,1280(sp)
    4f5c:	11400015 	stw	r5,0(r2)
    4f60:	00395906 	br	34c8 <___vfprintf_internal_r+0x170>
    4f64:	980f883a 	mov	r7,r19
    4f68:	dcc14515 	stw	r19,1300(sp)
    4f6c:	d8014615 	stw	zero,1304(sp)
    4f70:	003b9b06 	br	3de0 <___vfprintf_internal_r+0xa88>
    4f74:	0027883a 	mov	r19,zero
    4f78:	00397806 	br	355c <___vfprintf_internal_r+0x204>
    4f7c:	00c00074 	movhi	r3,1
    4f80:	18fbff04 	addi	r3,r3,-4100
    4f84:	100f883a 	mov	r7,r2
    4f88:	d8814515 	stw	r2,1300(sp)
    4f8c:	d8c14115 	stw	r3,1284(sp)
    4f90:	0039e006 	br	3714 <___vfprintf_internal_r+0x3bc>
    4f94:	00800074 	movhi	r2,1
    4f98:	10bbfe04 	addi	r2,r2,-4104
    4f9c:	d8814115 	stw	r2,1284(sp)
    4fa0:	003d1c06 	br	4414 <___vfprintf_internal_r+0x10bc>
    4fa4:	d9414d17 	ldw	r5,1332(sp)
    4fa8:	00801984 	movi	r2,102
    4fac:	28804926 	beq	r5,r2,50d4 <___vfprintf_internal_r+0x1d7c>
    4fb0:	200f883a 	mov	r7,r4
    4fb4:	24805716 	blt	r4,r18,5114 <___vfprintf_internal_r+0x1dbc>
    4fb8:	d9414c17 	ldw	r5,1328(sp)
    4fbc:	2880004c 	andi	r2,r5,1
    4fc0:	10000126 	beq	r2,zero,4fc8 <___vfprintf_internal_r+0x1c70>
    4fc4:	21c00044 	addi	r7,r4,1
    4fc8:	d9c14515 	stw	r7,1300(sp)
    4fcc:	383fcc0e 	bge	r7,zero,4f00 <___vfprintf_internal_r+0x1ba8>
    4fd0:	d8014515 	stw	zero,1300(sp)
    4fd4:	003fca06 	br	4f00 <___vfprintf_internal_r+0x1ba8>
    4fd8:	d9000517 	ldw	r4,20(sp)
    4fdc:	00bfff04 	movi	r2,-4
    4fe0:	1100480e 	bge	r2,r4,5104 <___vfprintf_internal_r+0x1dac>
    4fe4:	99004716 	blt	r19,r4,5104 <___vfprintf_internal_r+0x1dac>
    4fe8:	d8c14d15 	stw	r3,1332(sp)
    4fec:	003ff006 	br	4fb0 <___vfprintf_internal_r+0x1c58>
    4ff0:	d8800717 	ldw	r2,28(sp)
    4ff4:	14bf8b2e 	bgeu	r2,r18,4e24 <___vfprintf_internal_r+0x1acc>
    4ff8:	9007883a 	mov	r3,r18
    4ffc:	01000c04 	movi	r4,48
    5000:	11000005 	stb	r4,0(r2)
    5004:	10800044 	addi	r2,r2,1
    5008:	d8800715 	stw	r2,28(sp)
    500c:	18bffc1e 	bne	r3,r2,5000 <___vfprintf_internal_r+0x1ca8>
    5010:	003f8406 	br	4e24 <___vfprintf_internal_r+0x1acc>
    5014:	d8814117 	ldw	r2,1284(sp)
    5018:	10c00007 	ldb	r3,0(r2)
    501c:	00800c04 	movi	r2,48
    5020:	18805b26 	beq	r3,r2,5190 <___vfprintf_internal_r+0x1e38>
    5024:	d9000517 	ldw	r4,20(sp)
    5028:	9125883a 	add	r18,r18,r4
    502c:	003f7506 	br	4e04 <___vfprintf_internal_r+0x1aac>
    5030:	d9014c17 	ldw	r4,1328(sp)
    5034:	2080004c 	andi	r2,r4,1
    5038:	1005003a 	cmpeq	r2,r2,zero
    503c:	103f6a26 	beq	r2,zero,4de8 <___vfprintf_internal_r+0x1a90>
    5040:	d8800717 	ldw	r2,28(sp)
    5044:	003f7706 	br	4e24 <___vfprintf_internal_r+0x1acc>
    5048:	d9c14515 	stw	r7,1300(sp)
    504c:	38004d16 	blt	r7,zero,5184 <___vfprintf_internal_r+0x1e2c>
    5050:	dc814715 	stw	r18,1308(sp)
    5054:	d8014615 	stw	zero,1304(sp)
    5058:	003b6106 	br	3de0 <___vfprintf_internal_r+0xa88>
    505c:	d9014f17 	ldw	r4,1340(sp)
    5060:	d8800504 	addi	r2,sp,20
    5064:	d8800115 	stw	r2,4(sp)
    5068:	d8c00604 	addi	r3,sp,24
    506c:	d8800704 	addi	r2,sp,28
    5070:	800b883a 	mov	r5,r16
    5074:	880d883a 	mov	r6,r17
    5078:	01c000c4 	movi	r7,3
    507c:	d8c00215 	stw	r3,8(sp)
    5080:	d8800315 	stw	r2,12(sp)
    5084:	dcc00015 	stw	r19,0(sp)
    5088:	9829883a 	mov	r20,r19
    508c:	00057300 	call	5730 <_dtoa_r>
    5090:	d8814115 	stw	r2,1284(sp)
    5094:	003f5106 	br	4ddc <___vfprintf_internal_r+0x1a84>
    5098:	d8c14217 	ldw	r3,1288(sp)
    509c:	d9014317 	ldw	r4,1292(sp)
    50a0:	07000b44 	movi	fp,45
    50a4:	1821883a 	mov	r16,r3
    50a8:	2460003c 	xorhi	r17,r4,32768
    50ac:	003f3106 	br	4d74 <___vfprintf_internal_r+0x1a1c>
    50b0:	9d000044 	addi	r20,r19,1
    50b4:	003f3906 	br	4d9c <___vfprintf_internal_r+0x1a44>
    50b8:	983f251e 	bne	r19,zero,4d50 <___vfprintf_internal_r+0x19f8>
    50bc:	04c00044 	movi	r19,1
    50c0:	003f2306 	br	4d50 <___vfprintf_internal_r+0x19f8>
    50c4:	04c00184 	movi	r19,6
    50c8:	003f2106 	br	4d50 <___vfprintf_internal_r+0x19f8>
    50cc:	d8014515 	stw	zero,1300(sp)
    50d0:	003eee06 	br	4c8c <___vfprintf_internal_r+0x1934>
    50d4:	200f883a 	mov	r7,r4
    50d8:	0100370e 	bge	zero,r4,51b8 <___vfprintf_internal_r+0x1e60>
    50dc:	9800031e 	bne	r19,zero,50ec <___vfprintf_internal_r+0x1d94>
    50e0:	d9814c17 	ldw	r6,1328(sp)
    50e4:	3080004c 	andi	r2,r6,1
    50e8:	103fb726 	beq	r2,zero,4fc8 <___vfprintf_internal_r+0x1c70>
    50ec:	20800044 	addi	r2,r4,1
    50f0:	98a7883a 	add	r19,r19,r2
    50f4:	dcc14515 	stw	r19,1300(sp)
    50f8:	980f883a 	mov	r7,r19
    50fc:	983f800e 	bge	r19,zero,4f00 <___vfprintf_internal_r+0x1ba8>
    5100:	003fb306 	br	4fd0 <___vfprintf_internal_r+0x1c78>
    5104:	d9814d17 	ldw	r6,1332(sp)
    5108:	31bfff84 	addi	r6,r6,-2
    510c:	d9814d15 	stw	r6,1332(sp)
    5110:	003f4c06 	br	4e44 <___vfprintf_internal_r+0x1aec>
    5114:	0100180e 	bge	zero,r4,5178 <___vfprintf_internal_r+0x1e20>
    5118:	00800044 	movi	r2,1
    511c:	1485883a 	add	r2,r2,r18
    5120:	d8814515 	stw	r2,1300(sp)
    5124:	100f883a 	mov	r7,r2
    5128:	103f750e 	bge	r2,zero,4f00 <___vfprintf_internal_r+0x1ba8>
    512c:	003fa806 	br	4fd0 <___vfprintf_internal_r+0x1c78>
    5130:	80c00c04 	addi	r3,r16,48
    5134:	00800c04 	movi	r2,48
    5138:	d8c008c5 	stb	r3,35(sp)
    513c:	d9800804 	addi	r6,sp,32
    5140:	d8c00904 	addi	r3,sp,36
    5144:	d8800885 	stb	r2,34(sp)
    5148:	003f6506 	br	4ee0 <___vfprintf_internal_r+0x1b88>
    514c:	d9014c17 	ldw	r4,1328(sp)
    5150:	2084703a 	and	r2,r4,r2
    5154:	103f9c26 	beq	r2,zero,4fc8 <___vfprintf_internal_r+0x1c70>
    5158:	003f6606 	br	4ef4 <___vfprintf_internal_r+0x1b9c>
    515c:	d9800804 	addi	r6,sp,32
    5160:	d8c00884 	addi	r3,sp,34
    5164:	003f5e06 	br	4ee0 <___vfprintf_internal_r+0x1b88>
    5168:	00800b44 	movi	r2,45
    516c:	0121c83a 	sub	r16,zero,r4
    5170:	d8800845 	stb	r2,33(sp)
    5174:	003f3d06 	br	4e6c <___vfprintf_internal_r+0x1b14>
    5178:	00800084 	movi	r2,2
    517c:	1105c83a 	sub	r2,r2,r4
    5180:	003fe606 	br	511c <___vfprintf_internal_r+0x1dc4>
    5184:	d8014515 	stw	zero,1300(sp)
    5188:	dc814715 	stw	r18,1308(sp)
    518c:	003fb106 	br	5054 <___vfprintf_internal_r+0x1cfc>
    5190:	000d883a 	mov	r6,zero
    5194:	000f883a 	mov	r7,zero
    5198:	8009883a 	mov	r4,r16
    519c:	880b883a 	mov	r5,r17
    51a0:	000b5ac0 	call	b5ac <__nedf2>
